CCS PCM C Compiler, Version 3.249, 33340               25-Mar-14 03:32

               Filename: E:\Ganesh Potti\Ganesh Projects\Engineers Projects\universal atm\25-03-14\smart.lst

               ROM used: 3459 words (42%)
                         Largest free fragment is 2048
               RAM used: 64 (37%) at main() level
                         76 (43%) worst case
               Stack:    5 worst case (3 in main + 2 for interrupts)

*
0000:  MOVLW  08
0001:  MOVWF  0A
0002:  GOTO   000
0003:  NOP
0004:  MOVWF  7F
0005:  SWAPF  03,W
0006:  CLRF   03
0007:  MOVWF  21
0008:  MOVF   0A,W
0009:  MOVWF  20
000A:  CLRF   0A
000B:  MOVF   04,W
000C:  MOVWF  22
000D:  MOVF   77,W
000E:  MOVWF  23
000F:  MOVF   78,W
0010:  MOVWF  24
0011:  MOVF   79,W
0012:  MOVWF  25
0013:  MOVF   7A,W
0014:  MOVWF  26
0015:  MOVF   7B,W
0016:  MOVWF  27
0017:  BCF    03.7
0018:  BCF    03.5
0019:  BTFSS  0B.3
001A:  GOTO   01D
001B:  BTFSC  0B.0
001C:  GOTO   036
001D:  MOVLW  8C
001E:  MOVWF  04
001F:  BTFSS  00.5
0020:  GOTO   023
0021:  BTFSC  0C.5
0022:  GOTO   039
0023:  MOVF   22,W
0024:  MOVWF  04
0025:  MOVF   23,W
0026:  MOVWF  77
0027:  MOVF   24,W
0028:  MOVWF  78
0029:  MOVF   25,W
002A:  MOVWF  79
002B:  MOVF   26,W
002C:  MOVWF  7A
002D:  MOVF   27,W
002E:  MOVWF  7B
002F:  MOVF   20,W
0030:  MOVWF  0A
0031:  SWAPF  21,W
0032:  MOVWF  03
0033:  SWAPF  7F,F
0034:  SWAPF  7F,W
0035:  RETFIE
0036:  BCF    0A.3
0037:  BCF    0A.4
0038:  GOTO   29A
0039:  BCF    0A.3
003A:  BCF    0A.4
003B:  GOTO   2FC
.................... #include <16F877A.h> 
.................... //////// Standard Header file for the PIC16F877A device //////////////// 
.................... #device PIC16F877A 
.................... #list 
....................  
.................... #use delay(clock=11059200) 
*
0287:  MOVLW  65
0288:  MOVWF  04
0289:  MOVF   00,W
028A:  BTFSC  03.2
028B:  GOTO   299
028C:  MOVLW  03
028D:  MOVWF  78
028E:  CLRF   77
028F:  DECFSZ 77,F
0290:  GOTO   28F
0291:  DECFSZ 78,F
0292:  GOTO   28E
0293:  MOVLW  95
0294:  MOVWF  77
0295:  DECFSZ 77,F
0296:  GOTO   295
0297:  DECFSZ 00,F
0298:  GOTO   28C
0299:  RETLW  00
.................... #use rs232(baud=9600, xmit=PIN_c6,rcv=PIN_c7, bits=8, errors) 
*
02F0:  BTFSS  0C.5
02F1:  GOTO   2F0
02F2:  MOVF   18,W
02F3:  MOVWF  29
02F4:  MOVF   1A,W
02F5:  MOVWF  78
02F6:  BTFSS  29.1
02F7:  GOTO   2FA
02F8:  BCF    18.4
02F9:  BSF    18.4
02FA:  NOP
02FB:  RETLW  00
*
0812:  BCF    03.5
0813:  CLRF   29
.................... #fuses NOWDT, HS, PUT, NOPROTECT, NOBROWNOUT, NOLVP, NOCPD, NOWRT 
....................  
.................... #byte trisb=0x86 
.................... #byte portb=0x06 
....................  
.................... #byte trisd=0x88 
.................... #byte portd=0x08 
....................  
.................... #byte trisc=0x87 
.................... #byte portc=0x07 
....................  
.................... #bit RELAY = portc.0 
....................  
.................... #byte trise=0x89 
.................... #byte porte=0x09 
....................  
.................... #byte intcon=0x0b 
.................... #byte option_reg=0x81 
.................... #byte rcreg=0x1a 
....................  
.................... #bit c1=portb.7 
.................... #bit c2=portb.6 
.................... #bit c3=portb.5 
.................... #bit c4=portb.4 
....................  
.................... #bit r4=portb.0 
.................... #bit r3=portb.1 
.................... #bit r2=portb.2 
.................... #bit r1=portb.3 
....................  
.................... #bit reg=porte.0 
.................... #bit rw=porte.1 
.................... #bit en=porte.2 
....................  
.................... #define Z PUTC('M') 
.................... #define Y PUTC('L') 
....................  
.................... unsigned int16 enter_amt = 0 , total_amt = 0 , amount = 0 , total_no[5]={0} , w[5] = {0}; 
0814:  CLRF   2A
0815:  CLRF   2B
0816:  CLRF   2C
0817:  CLRF   2D
0818:  CLRF   2E
0819:  CLRF   2F
081A:  CLRF   30
081B:  CLRF   31
081C:  CLRF   32
081D:  CLRF   33
081E:  CLRF   34
081F:  CLRF   35
0820:  CLRF   36
0821:  CLRF   37
0822:  CLRF   38
0823:  CLRF   39
0824:  CLRF   3A
0825:  CLRF   3B
0826:  CLRF   3C
0827:  CLRF   3D
0828:  CLRF   3E
0829:  CLRF   3F
082A:  CLRF   40
082B:  CLRF   41
082C:  CLRF   42
082D:  CLRF   43
.................... unsigned char a[12]={0,0,0,0,0,0,0,0,0,0,0,0} , x=0, i=0, i1=0 ; 
082E:  CLRF   44
082F:  CLRF   45
0830:  CLRF   46
0831:  CLRF   47
0832:  CLRF   48
0833:  CLRF   49
0834:  CLRF   4A
0835:  CLRF   4B
0836:  CLRF   4C
0837:  CLRF   4D
0838:  CLRF   4E
0839:  CLRF   4F
083A:  CLRF   50
083B:  CLRF   51
083C:  CLRF   52
.................... unsigned int1 id_flag=0,flag_1=1,glag=0,glag_1=0,glag_2=0,glag_3=0,glag_4=0,k=0,l=0,m=1,n=1,p=1,o=1,t=0,q=1,r=0, s=0 ,receiver=0,c=0,rb_flag=0 , amt_flag=0 , id = 0 ; 
083D:  BCF    53.0
083E:  BSF    53.1
083F:  BCF    53.2
0840:  BCF    53.3
0841:  BCF    53.4
0842:  BCF    53.5
0843:  BCF    53.6
0844:  BCF    53.7
0845:  BCF    54.0
0846:  BSF    54.1
0847:  BSF    54.2
0848:  BSF    54.3
0849:  BSF    54.4
084A:  BCF    54.5
084B:  BSF    54.6
084C:  BCF    54.7
084D:  BCF    55.0
084E:  BCF    55.1
084F:  BCF    55.2
0850:  BCF    55.3
0851:  BCF    55.4
0852:  BCF    55.5
.................... void display(unsigned int16 m); 
.................... void withdrawal_amount(); 
.................... void deposite_amount(); 
....................  
.................... #int_rb 
.................... rb_isr() 
.................... { 
....................       portb=0xf0; 
*
029A:  MOVLW  F0
029B:  MOVWF  06
....................       r1=0; if(c1==0) {x=0;} if(c2==0){x=1;} if(c3==0){x=2;} if(c4==0){x=3;}r1=1; 
029C:  BCF    06.3
029D:  BTFSC  06.7
029E:  GOTO   2A0
029F:  CLRF   50
02A0:  BTFSC  06.6
02A1:  GOTO   2A4
02A2:  MOVLW  01
02A3:  MOVWF  50
02A4:  BTFSC  06.5
02A5:  GOTO   2A8
02A6:  MOVLW  02
02A7:  MOVWF  50
02A8:  BTFSC  06.4
02A9:  GOTO   2AC
02AA:  MOVLW  03
02AB:  MOVWF  50
02AC:  BSF    06.3
....................  
....................       r2=0; if(c1==0) {x=4; }if(c2==0){x=5;} if(c3==0){x=6;} if(c4==0){x=7;}r2=1; 
02AD:  BCF    06.2
02AE:  BTFSC  06.7
02AF:  GOTO   2B2
02B0:  MOVLW  04
02B1:  MOVWF  50
02B2:  BTFSC  06.6
02B3:  GOTO   2B6
02B4:  MOVLW  05
02B5:  MOVWF  50
02B6:  BTFSC  06.5
02B7:  GOTO   2BA
02B8:  MOVLW  06
02B9:  MOVWF  50
02BA:  BTFSC  06.4
02BB:  GOTO   2BE
02BC:  MOVLW  07
02BD:  MOVWF  50
02BE:  BSF    06.2
....................  
....................       r3=0; if(c1==0) {x=8;} if(c2==0){x='A';} if(c3==0){x='B';} if(c4==0){x='C';}r3=1; 
02BF:  BCF    06.1
02C0:  BTFSC  06.7
02C1:  GOTO   2C4
02C2:  MOVLW  08
02C3:  MOVWF  50
02C4:  BTFSC  06.6
02C5:  GOTO   2C8
02C6:  MOVLW  41
02C7:  MOVWF  50
02C8:  BTFSC  06.5
02C9:  GOTO   2CC
02CA:  MOVLW  42
02CB:  MOVWF  50
02CC:  BTFSC  06.4
02CD:  GOTO   2D0
02CE:  MOVLW  43
02CF:  MOVWF  50
02D0:  BSF    06.1
....................  
....................       r4=0; if(c1==0) {x='D';} if(c2==0){x='E';} if(c3==0){x='F';} if(c4==0){x='G';}r4=1; 
02D1:  BCF    06.0
02D2:  BTFSC  06.7
02D3:  GOTO   2D6
02D4:  MOVLW  44
02D5:  MOVWF  50
02D6:  BTFSC  06.6
02D7:  GOTO   2DA
02D8:  MOVLW  45
02D9:  MOVWF  50
02DA:  BTFSC  06.5
02DB:  GOTO   2DE
02DC:  MOVLW  46
02DD:  MOVWF  50
02DE:  BTFSC  06.4
02DF:  GOTO   2E2
02E0:  MOVLW  47
02E1:  MOVWF  50
02E2:  BSF    06.0
....................       portb=0x00; 
02E3:  CLRF   06
....................       while(!(portb==0xf0)); 
02E4:  MOVF   06,W
02E5:  SUBLW  F0
02E6:  BTFSS  03.2
02E7:  GOTO   2E4
....................       rb_flag=1; 
02E8:  BSF    55.3
....................       delay_ms(2); 
02E9:  MOVLW  02
02EA:  MOVWF  65
02EB:  CALL   287
.................... } 
....................  
02EC:  BCF    0B.0
02ED:  BCF    0A.3
02EE:  BCF    0A.4
02EF:  GOTO   023
.................... #int_rda 
.................... rda_isr() 
.................... { 
....................       if(id==0) 
*
02FC:  BTFSC  55.5
02FD:  GOTO   30E
....................         { 
....................          a[i1]=fgetc(); 
02FE:  MOVLW  44
02FF:  ADDWF  52,W
0300:  MOVWF  04
0301:  MOVWF  66
0302:  CALL   2F0
0303:  MOVF   66,W
0304:  MOVWF  04
0305:  MOVF   78,W
0306:  MOVWF  00
....................          i1++; 
0307:  INCF   52,F
....................             if(i1>=5) 
0308:  MOVF   52,W
0309:  SUBLW  04
030A:  BTFSC  03.0
030B:  GOTO   30E
....................              { 
....................                i1=0; 
030C:  CLRF   52
....................                amt_flag=1; 
030D:  BSF    55.4
....................              } 
....................         } 
....................       if(id==1) 
030E:  BTFSS  55.5
030F:  GOTO   320
....................       { 
....................          a[i1]=fgetc(); 
0310:  MOVLW  44
0311:  ADDWF  52,W
0312:  MOVWF  04
0313:  MOVWF  66
0314:  CALL   2F0
0315:  MOVF   66,W
0316:  MOVWF  04
0317:  MOVF   78,W
0318:  MOVWF  00
....................          i1++; 
0319:  INCF   52,F
....................             if(i1>=12) 
031A:  MOVF   52,W
031B:  SUBLW  0B
031C:  BTFSC  03.0
031D:  GOTO   320
....................              { 
....................                i1=0; 
031E:  CLRF   52
....................                id_flag=1; 
031F:  BSF    53.0
....................              } 
....................       } 
.................... } 
0320:  BCF    0C.5
0321:  BCF    0A.3
0322:  BCF    0A.4
0323:  GOTO   023
.................... void command(unsigned int com) 
.................... { 
....................       portd=com; 
0324:  MOVF   5C,W
0325:  MOVWF  08
....................       reg=0; 
0326:  BCF    09.0
....................       rw=0; 
0327:  BCF    09.1
....................       en=1; 
0328:  BSF    09.2
....................       delay_us(50); 
0329:  MOVLW  2D
032A:  MOVWF  77
032B:  DECFSZ 77,F
032C:  GOTO   32B
032D:  NOP
032E:  NOP
....................       en=0; 
032F:  BCF    09.2
.................... } 
0330:  RETLW  00
.................... void data(unsigned int dat) 
.................... { 
....................       portd=dat; 
0331:  MOVF   61,W
0332:  MOVWF  08
....................       reg=1; 
0333:  BSF    09.0
....................       rw=0; 
0334:  BCF    09.1
....................       en=1; 
0335:  BSF    09.2
....................       delay_us(50); 
0336:  MOVLW  2D
0337:  MOVWF  77
0338:  DECFSZ 77,F
0339:  GOTO   338
033A:  NOP
033B:  NOP
....................       en=0; 
033C:  BCF    09.2
.................... } 
033D:  RETLW  00
....................  
.................... void main() 
.................... { 
*
0800:  CLRF   04
0801:  MOVLW  1F
0802:  ANDWF  03,F
0803:  MOVLW  11
0804:  BSF    03.5
0805:  MOVWF  19
0806:  MOVLW  22
0807:  MOVWF  18
0808:  MOVLW  90
0809:  BCF    03.5
080A:  MOVWF  18
080B:  BSF    03.5
080C:  BSF    1F.0
080D:  BSF    1F.1
080E:  BSF    1F.2
080F:  BCF    1F.3
0810:  MOVLW  07
0811:  MOVWF  1C
....................       int t,r,c; 
....................  
....................       trisb=0xf0; 
*
0853:  MOVLW  F0
0854:  BSF    03.5
0855:  MOVWF  06
....................       portb=0x00; 
0856:  BCF    03.5
0857:  CLRF   06
....................  
....................       trisd=0x00; 
0858:  BSF    03.5
0859:  CLRF   08
....................       portd=0x00; 
085A:  BCF    03.5
085B:  CLRF   08
....................  
....................       trisc=0x80; 
085C:  MOVLW  80
085D:  BSF    03.5
085E:  MOVWF  07
....................       portc=0x00; 
085F:  BCF    03.5
0860:  CLRF   07
....................  
....................       trise=0x00; 
0861:  BSF    03.5
0862:  CLRF   09
....................       porte=0x00; 
0863:  BCF    03.5
0864:  CLRF   09
....................  
....................       option_reg=0x00; 
0865:  BSF    03.5
0866:  CLRF   01
....................       intcon=0xc8; 
0867:  MOVLW  C8
0868:  BCF    03.5
0869:  MOVWF  0B
....................  
....................       enable_interrupts(global); 
086A:  MOVLW  C0
086B:  IORWF  0B,F
....................       enable_interrupts(int_rda); 
086C:  BSF    03.5
086D:  BSF    0C.5
....................  
....................       command(0x38); 
086E:  MOVLW  38
086F:  BCF    03.5
0870:  MOVWF  5C
0871:  BCF    0A.3
0872:  CALL   324
0873:  BSF    0A.3
....................       command(0x0c); 
0874:  MOVLW  0C
0875:  MOVWF  5C
0876:  BCF    0A.3
0877:  CALL   324
0878:  BSF    0A.3
....................       command(0x06); 
0879:  MOVLW  06
087A:  MOVWF  5C
087B:  BCF    0A.3
087C:  CALL   324
087D:  BSF    0A.3
....................       command(0x01); 
087E:  MOVLW  01
087F:  MOVWF  5C
0880:  BCF    0A.3
0881:  CALL   324
0882:  BSF    0A.3
0883:  CLRF   28
0884:  BTFSC  0B.7
0885:  BSF    28.7
0886:  BCF    0B.7
....................  
....................       delay_ms(2); 
0887:  MOVLW  02
0888:  MOVWF  65
0889:  BCF    0A.3
088A:  CALL   287
088B:  BSF    0A.3
088C:  BTFSC  28.7
088D:  BSF    0B.7
....................        
....................       command(0x80); 
088E:  MOVLW  80
088F:  MOVWF  5C
0890:  BCF    0A.3
0891:  CALL   324
0892:  BSF    0A.3
....................       data("   PLEASE ENTER  "); 
0893:  CLRF   59
0894:  MOVF   59,W
0895:  BCF    0A.3
0896:  CALL   03C
0897:  BSF    0A.3
0898:  IORLW  00
0899:  BTFSC  03.2
089A:  GOTO   0A1
089B:  INCF   59,F
089C:  MOVWF  61
089D:  BCF    0A.3
089E:  CALL   331
089F:  BSF    0A.3
08A0:  GOTO   094
....................       command(0xc0); 
08A1:  MOVLW  C0
08A2:  MOVWF  5C
08A3:  BCF    0A.3
08A4:  CALL   324
08A5:  BSF    0A.3
....................       data("   YOUR CHOICES    "); 
08A6:  CLRF   59
08A7:  MOVF   59,W
08A8:  BCF    0A.3
08A9:  CALL   052
08AA:  BSF    0A.3
08AB:  IORLW  00
08AC:  BTFSC  03.2
08AD:  GOTO   0B4
08AE:  INCF   59,F
08AF:  MOVWF  61
08B0:  BCF    0A.3
08B1:  CALL   331
08B2:  BSF    0A.3
08B3:  GOTO   0A7
....................       delay_ms(500); 
08B4:  MOVLW  02
08B5:  MOVWF  59
08B6:  CLRF   28
08B7:  BTFSC  0B.7
08B8:  BSF    28.7
08B9:  BCF    0B.7
08BA:  MOVLW  FA
08BB:  MOVWF  65
08BC:  BCF    0A.3
08BD:  CALL   287
08BE:  BSF    0A.3
08BF:  BTFSC  28.7
08C0:  BSF    0B.7
08C1:  DECFSZ 59,F
08C2:  GOTO   0B6
....................       command(0x01); 
08C3:  MOVLW  01
08C4:  MOVWF  5C
08C5:  BCF    0A.3
08C6:  CALL   324
08C7:  BSF    0A.3
08C8:  CLRF   28
08C9:  BTFSC  0B.7
08CA:  BSF    28.7
08CB:  BCF    0B.7
....................       delay_ms(2); 
08CC:  MOVLW  02
08CD:  MOVWF  65
08CE:  BCF    0A.3
08CF:  CALL   287
08D0:  BSF    0A.3
08D1:  BTFSC  28.7
08D2:  BSF    0B.7
....................       putc('1'); 
08D3:  MOVLW  31
08D4:  BTFSS  0C.4
08D5:  GOTO   0D4
08D6:  MOVWF  19
....................  
.................... while(1) 
.................... { 
.................... if(amt_flag==1) 
08D7:  BTFSS  55.4
08D8:  GOTO   134
.................... { 
....................       RELAY = 0; 
08D9:  BCF    07.0
....................       s=1; 
08DA:  BSF    55.0
....................       amt_flag=0; 
08DB:  BCF    55.4
....................       command(0x01); 
08DC:  MOVLW  01
08DD:  MOVWF  5C
08DE:  BCF    0A.3
08DF:  CALL   324
08E0:  BSF    0A.3
08E1:  CLRF   28
08E2:  BTFSC  0B.7
08E3:  BSF    28.7
08E4:  BCF    0B.7
....................       delay_ms(2); 
08E5:  MOVLW  02
08E6:  MOVWF  65
08E7:  BCF    0A.3
08E8:  CALL   287
08E9:  BSF    0A.3
08EA:  BTFSC  28.7
08EB:  BSF    0B.7
....................  
....................       total_amt = 0; 
08EC:  CLRF   2D
08ED:  CLRF   2C
....................       total_amt += (a[0]-'0')*10000; 
08EE:  MOVLW  30
08EF:  SUBWF  44,W
08F0:  MOVWF  5A
08F1:  CLRF   5F
08F2:  MOVF   5A,W
08F3:  MOVWF  5E
08F4:  MOVLW  27
08F5:  MOVWF  61
08F6:  MOVLW  10
08F7:  MOVWF  60
08F8:  BCF    0A.3
08F9:  CALL   33E
08FA:  BSF    0A.3
08FB:  MOVF   78,W
08FC:  ADDWF  2C,F
08FD:  MOVF   79,W
08FE:  BTFSC  03.0
08FF:  INCFSZ 79,W
0900:  ADDWF  2D,F
....................       total_amt += (a[1]-'0')*1000; 
0901:  MOVLW  30
0902:  SUBWF  45,W
0903:  MOVWF  5A
0904:  CLRF   5F
0905:  MOVF   5A,W
0906:  MOVWF  5E
0907:  MOVLW  03
0908:  MOVWF  61
0909:  MOVLW  E8
090A:  MOVWF  60
090B:  BCF    0A.3
090C:  CALL   33E
090D:  BSF    0A.3
090E:  MOVF   78,W
090F:  ADDWF  2C,F
0910:  MOVF   79,W
0911:  BTFSC  03.0
0912:  INCFSZ 79,W
0913:  ADDWF  2D,F
....................       total_amt += (a[2]-'0')*100; 
0914:  MOVLW  30
0915:  SUBWF  46,W
0916:  MOVWF  5A
0917:  MOVWF  5B
0918:  MOVLW  64
0919:  MOVWF  5C
091A:  BCF    0A.3
091B:  CALL   353
091C:  BSF    0A.3
091D:  MOVF   78,W
091E:  ADDWF  2C,F
091F:  BTFSC  03.0
0920:  INCF   2D,F
....................       total_amt += (a[3]-'0')*10; 
0921:  MOVLW  30
0922:  SUBWF  47,W
0923:  MOVWF  5A
0924:  MOVWF  5B
0925:  MOVLW  0A
0926:  MOVWF  5C
0927:  BCF    0A.3
0928:  CALL   353
0929:  BSF    0A.3
092A:  MOVF   78,W
092B:  ADDWF  2C,F
092C:  BTFSC  03.0
092D:  INCF   2D,F
....................       total_amt += (a[4]-'0')*1; 
092E:  MOVLW  30
092F:  SUBWF  48,W
0930:  ADDWF  2C,F
0931:  BTFSC  03.0
0932:  INCF   2D,F
....................        
....................       id=1; 
0933:  BSF    55.5
.................... } 
.................... if((x==0) && (o==1)) 
0934:  MOVF   50,F
0935:  BTFSS  03.2
0936:  GOTO   226
0937:  BTFSS  54.4
0938:  GOTO   226
.................... { 
....................       s=0; 
0939:  BCF    55.0
....................       k=1; 
093A:  BSF    53.7
....................       command(0x80); 
093B:  MOVLW  80
093C:  MOVWF  5C
093D:  BCF    0A.3
093E:  CALL   324
093F:  BSF    0A.3
....................       data("K.A:"); 
0940:  CLRF   59
0941:  MOVF   59,W
0942:  BCF    0A.3
0943:  CALL   06A
0944:  BSF    0A.3
0945:  IORLW  00
0946:  BTFSC  03.2
0947:  GOTO   14E
0948:  INCF   59,F
0949:  MOVWF  61
094A:  BCF    0A.3
094B:  CALL   331
094C:  BSF    0A.3
094D:  GOTO   141
....................       command(0x84); 
094E:  MOVLW  84
094F:  MOVWF  5C
0950:  BCF    0A.3
0951:  CALL   324
0952:  BSF    0A.3
....................       data("CLASS ROOM"); 
0953:  CLRF   59
0954:  MOVF   59,W
0955:  BCF    0A.3
0956:  CALL   073
0957:  BSF    0A.3
0958:  IORLW  00
0959:  BTFSC  03.2
095A:  GOTO   161
095B:  INCF   59,F
095C:  MOVWF  61
095D:  BCF    0A.3
095E:  CALL   331
095F:  BSF    0A.3
0960:  GOTO   154
0961:  CLRF   28
0962:  BTFSC  0B.7
0963:  BSF    28.7
0964:  BCF    0B.7
....................       delay_ms(1); 
0965:  MOVLW  01
0966:  MOVWF  65
0967:  BCF    0A.3
0968:  CALL   287
0969:  BSF    0A.3
096A:  BTFSC  28.7
096B:  BSF    0B.7
....................       command(0xc0); 
096C:  MOVLW  C0
096D:  MOVWF  5C
096E:  BCF    0A.3
096F:  CALL   324
0970:  BSF    0A.3
....................       data("K.B:"); 
0971:  CLRF   59
0972:  MOVF   59,W
0973:  BCF    0A.3
0974:  CALL   082
0975:  BSF    0A.3
0976:  IORLW  00
0977:  BTFSC  03.2
0978:  GOTO   17F
0979:  INCF   59,F
097A:  MOVWF  61
097B:  BCF    0A.3
097C:  CALL   331
097D:  BSF    0A.3
097E:  GOTO   172
....................       command(0xc4); 
097F:  MOVLW  C4
0980:  MOVWF  5C
0981:  BCF    0A.3
0982:  CALL   324
0983:  BSF    0A.3
....................       data("LIBRARY"); 
0984:  CLRF   59
0985:  MOVF   59,W
0986:  BCF    0A.3
0987:  CALL   08B
0988:  BSF    0A.3
0989:  IORLW  00
098A:  BTFSC  03.2
098B:  GOTO   192
098C:  INCF   59,F
098D:  MOVWF  61
098E:  BCF    0A.3
098F:  CALL   331
0990:  BSF    0A.3
0991:  GOTO   185
0992:  CLRF   28
0993:  BTFSC  0B.7
0994:  BSF    28.7
0995:  BCF    0B.7
....................       delay_ms(1); 
0996:  MOVLW  01
0997:  MOVWF  65
0998:  BCF    0A.3
0999:  CALL   287
099A:  BSF    0A.3
099B:  BTFSC  28.7
099C:  BSF    0B.7
....................       command(0x94); 
099D:  MOVLW  94
099E:  MOVWF  5C
099F:  BCF    0A.3
09A0:  CALL   324
09A1:  BSF    0A.3
....................       data("K.C:"); 
09A2:  CLRF   59
09A3:  MOVF   59,W
09A4:  BCF    0A.3
09A5:  CALL   097
09A6:  BSF    0A.3
09A7:  IORLW  00
09A8:  BTFSC  03.2
09A9:  GOTO   1B0
09AA:  INCF   59,F
09AB:  MOVWF  61
09AC:  BCF    0A.3
09AD:  CALL   331
09AE:  BSF    0A.3
09AF:  GOTO   1A3
....................       command(0x98); 
09B0:  MOVLW  98
09B1:  MOVWF  5C
09B2:  BCF    0A.3
09B3:  CALL   324
09B4:  BSF    0A.3
....................       data("CANTEEN"); 
09B5:  CLRF   59
09B6:  MOVF   59,W
09B7:  BCF    0A.3
09B8:  CALL   0A0
09B9:  BSF    0A.3
09BA:  IORLW  00
09BB:  BTFSC  03.2
09BC:  GOTO   1C3
09BD:  INCF   59,F
09BE:  MOVWF  61
09BF:  BCF    0A.3
09C0:  CALL   331
09C1:  BSF    0A.3
09C2:  GOTO   1B6
09C3:  CLRF   28
09C4:  BTFSC  0B.7
09C5:  BSF    28.7
09C6:  BCF    0B.7
....................       delay_ms(1); 
09C7:  MOVLW  01
09C8:  MOVWF  65
09C9:  BCF    0A.3
09CA:  CALL   287
09CB:  BSF    0A.3
09CC:  BTFSC  28.7
09CD:  BSF    0B.7
....................       command(0xd4); 
09CE:  MOVLW  D4
09CF:  MOVWF  5C
09D0:  BCF    0A.3
09D1:  CALL   324
09D2:  BSF    0A.3
....................       data("K.D:"); 
09D3:  CLRF   59
09D4:  MOVF   59,W
09D5:  BCF    0A.3
09D6:  CALL   0AC
09D7:  BSF    0A.3
09D8:  IORLW  00
09D9:  BTFSC  03.2
09DA:  GOTO   1E1
09DB:  INCF   59,F
09DC:  MOVWF  61
09DD:  BCF    0A.3
09DE:  CALL   331
09DF:  BSF    0A.3
09E0:  GOTO   1D4
....................       command(0xd8); 
09E1:  MOVLW  D8
09E2:  MOVWF  5C
09E3:  BCF    0A.3
09E4:  CALL   324
09E5:  BSF    0A.3
....................       data("HOSTEL"); 
09E6:  CLRF   59
09E7:  MOVF   59,W
09E8:  BCF    0A.3
09E9:  CALL   0B5
09EA:  BSF    0A.3
09EB:  IORLW  00
09EC:  BTFSC  03.2
09ED:  GOTO   1F4
09EE:  INCF   59,F
09EF:  MOVWF  61
09F0:  BCF    0A.3
09F1:  CALL   331
09F2:  BSF    0A.3
09F3:  GOTO   1E7
09F4:  CLRF   28
09F5:  BTFSC  0B.7
09F6:  BSF    28.7
09F7:  BCF    0B.7
....................       delay_ms(1); 
09F8:  MOVLW  01
09F9:  MOVWF  65
09FA:  BCF    0A.3
09FB:  CALL   287
09FC:  BSF    0A.3
09FD:  BTFSC  28.7
09FE:  BSF    0B.7
....................       command(0xdf); 
09FF:  MOVLW  DF
0A00:  MOVWF  5C
0A01:  BCF    0A.3
0A02:  CALL   324
0A03:  BSF    0A.3
....................       data("K.E:"); 
0A04:  CLRF   59
0A05:  MOVF   59,W
0A06:  BCF    0A.3
0A07:  CALL   0C0
0A08:  BSF    0A.3
0A09:  IORLW  00
0A0A:  BTFSC  03.2
0A0B:  GOTO   212
0A0C:  INCF   59,F
0A0D:  MOVWF  61
0A0E:  BCF    0A.3
0A0F:  CALL   331
0A10:  BSF    0A.3
0A11:  GOTO   205
....................       command(0xe3); 
0A12:  MOVLW  E3
0A13:  MOVWF  5C
0A14:  BCF    0A.3
0A15:  CALL   324
0A16:  BSF    0A.3
....................       data("BANKS"); 
0A17:  CLRF   59
0A18:  MOVF   59,W
0A19:  BCF    0A.3
0A1A:  CALL   0C9
0A1B:  BSF    0A.3
0A1C:  IORLW  00
0A1D:  BTFSC  03.2
0A1E:  GOTO   225
0A1F:  INCF   59,F
0A20:  MOVWF  61
0A21:  BCF    0A.3
0A22:  CALL   331
0A23:  BSF    0A.3
0A24:  GOTO   218
....................        
....................       RELAY=1; 
0A25:  BSF    07.0
.................... } 
.................... if((x=='A') && (k==1))                                              ////// CLASS ROOM 
0A26:  MOVF   50,W
0A27:  SUBLW  41
0A28:  BTFSS  03.2
0A29:  GOTO   265
0A2A:  BTFSS  53.7
0A2B:  GOTO   265
.................... { 
....................       x=0;o=0;glag=1;glag_2=0;glag_1=0;glag_3=0;glag_4=0; 
0A2C:  CLRF   50
0A2D:  BCF    54.4
0A2E:  BSF    53.2
0A2F:  BCF    53.4
0A30:  BCF    53.3
0A31:  BCF    53.5
0A32:  BCF    53.6
....................       putc('A'); 
0A33:  MOVLW  41
0A34:  BTFSS  0C.4
0A35:  GOTO   234
0A36:  MOVWF  19
....................       command(0x01); 
0A37:  MOVLW  01
0A38:  MOVWF  5C
0A39:  BCF    0A.3
0A3A:  CALL   324
0A3B:  BSF    0A.3
0A3C:  CLRF   28
0A3D:  BTFSC  0B.7
0A3E:  BSF    28.7
0A3F:  BCF    0B.7
....................       delay_ms(2); 
0A40:  MOVLW  02
0A41:  MOVWF  65
0A42:  BCF    0A.3
0A43:  CALL   287
0A44:  BSF    0A.3
0A45:  BTFSC  28.7
0A46:  BSF    0B.7
....................       command(0x80); 
0A47:  MOVLW  80
0A48:  MOVWF  5C
0A49:  BCF    0A.3
0A4A:  CALL   324
0A4B:  BSF    0A.3
....................       data("CLASS ROOM:"); 
0A4C:  CLRF   59
0A4D:  MOVF   59,W
0A4E:  BCF    0A.3
0A4F:  CALL   0D3
0A50:  BSF    0A.3
0A51:  IORLW  00
0A52:  BTFSC  03.2
0A53:  GOTO   25A
0A54:  INCF   59,F
0A55:  MOVWF  61
0A56:  BCF    0A.3
0A57:  CALL   331
0A58:  BSF    0A.3
0A59:  GOTO   24D
0A5A:  CLRF   28
0A5B:  BTFSC  0B.7
0A5C:  BSF    28.7
0A5D:  BCF    0B.7
....................       delay_ms(100); 
0A5E:  MOVLW  64
0A5F:  MOVWF  65
0A60:  BCF    0A.3
0A61:  CALL   287
0A62:  BSF    0A.3
0A63:  BTFSC  28.7
0A64:  BSF    0B.7
....................        
....................             } 
....................                if((id_flag==1) && (glag==1)) 
0A65:  BTFSS  53.0
0A66:  GOTO   2AC
0A67:  BTFSS  53.2
0A68:  GOTO   2AC
....................                { 
....................                   if((a[10]=='5') && (a[11]=='1')) 
0A69:  MOVF   4E,W
0A6A:  SUBLW  35
0A6B:  BTFSS  03.2
0A6C:  GOTO   28A
0A6D:  MOVF   4F,W
0A6E:  SUBLW  31
0A6F:  BTFSS  03.2
0A70:  GOTO   28A
....................                   { 
....................                            receiver=1;o=0; 
0A71:  BSF    55.1
0A72:  BCF    54.4
....................                            Z; 
0A73:  MOVLW  4D
0A74:  BTFSS  0C.4
0A75:  GOTO   274
0A76:  MOVWF  19
....................                            command(0x80); 
0A77:  MOVLW  80
0A78:  MOVWF  5C
0A79:  BCF    0A.3
0A7A:  CALL   324
0A7B:  BSF    0A.3
....................                            data("DIVYA IS PRESENT"); 
0A7C:  CLRF   59
0A7D:  MOVF   59,W
0A7E:  BCF    0A.3
0A7F:  CALL   0E3
0A80:  BSF    0A.3
0A81:  IORLW  00
0A82:  BTFSC  03.2
0A83:  GOTO   28A
0A84:  INCF   59,F
0A85:  MOVWF  61
0A86:  BCF    0A.3
0A87:  CALL   331
0A88:  BSF    0A.3
0A89:  GOTO   27D
....................                                  } 
....................                                     if((a[9]=='5') && (a[10]=='3')) 
0A8A:  MOVF   4D,W
0A8B:  SUBLW  35
0A8C:  BTFSS  03.2
0A8D:  GOTO   2AB
0A8E:  MOVF   4E,W
0A8F:  SUBLW  33
0A90:  BTFSS  03.2
0A91:  GOTO   2AB
....................                                     { 
....................                                        receiver=0;o=0; 
0A92:  BCF    55.1
0A93:  BCF    54.4
....................                                        Y; 
0A94:  MOVLW  4C
0A95:  BTFSS  0C.4
0A96:  GOTO   295
0A97:  MOVWF  19
....................                                        command(0xc0); 
0A98:  MOVLW  C0
0A99:  MOVWF  5C
0A9A:  BCF    0A.3
0A9B:  CALL   324
0A9C:  BSF    0A.3
....................                                        data("RAMYA IS PRESENT"); 
0A9D:  CLRF   59
0A9E:  MOVF   59,W
0A9F:  BCF    0A.3
0AA0:  CALL   0F8
0AA1:  BSF    0A.3
0AA2:  IORLW  00
0AA3:  BTFSC  03.2
0AA4:  GOTO   2AB
0AA5:  INCF   59,F
0AA6:  MOVWF  61
0AA7:  BCF    0A.3
0AA8:  CALL   331
0AA9:  BSF    0A.3
0AAA:  GOTO   29E
....................                                           } 
....................                                              id_flag=0; 
0AAB:  BCF    53.0
....................  
....................                } 
....................  
.................... if(x=='B')                                                            ////// LIBRARY 
0AAC:  MOVF   50,W
0AAD:  SUBLW  42
0AAE:  BTFSS  03.2
0AAF:  GOTO   2E9
.................... { 
....................          x=0;o=0;glag=0;glag_2=0;glag_1=1;glag_3=0;glag_4=0; 
0AB0:  CLRF   50
0AB1:  BCF    54.4
0AB2:  BCF    53.2
0AB3:  BCF    53.4
0AB4:  BSF    53.3
0AB5:  BCF    53.5
0AB6:  BCF    53.6
....................          putc('B'); 
0AB7:  MOVLW  42
0AB8:  BTFSS  0C.4
0AB9:  GOTO   2B8
0ABA:  MOVWF  19
....................          command(0x01); 
0ABB:  MOVLW  01
0ABC:  MOVWF  5C
0ABD:  BCF    0A.3
0ABE:  CALL   324
0ABF:  BSF    0A.3
....................          command(0x80); 
0AC0:  MOVLW  80
0AC1:  MOVWF  5C
0AC2:  BCF    0A.3
0AC3:  CALL   324
0AC4:  BSF    0A.3
0AC5:  CLRF   28
0AC6:  BTFSC  0B.7
0AC7:  BSF    28.7
0AC8:  BCF    0B.7
....................          delay_ms(2); 
0AC9:  MOVLW  02
0ACA:  MOVWF  65
0ACB:  BCF    0A.3
0ACC:  CALL   287
0ACD:  BSF    0A.3
0ACE:  BTFSC  28.7
0ACF:  BSF    0B.7
....................          data("LIBRARY:"); 
0AD0:  CLRF   59
0AD1:  MOVF   59,W
0AD2:  BCF    0A.3
0AD3:  CALL   113
0AD4:  BSF    0A.3
0AD5:  IORLW  00
0AD6:  BTFSC  03.2
0AD7:  GOTO   2DE
0AD8:  INCF   59,F
0AD9:  MOVWF  61
0ADA:  BCF    0A.3
0ADB:  CALL   331
0ADC:  BSF    0A.3
0ADD:  GOTO   2D1
0ADE:  CLRF   28
0ADF:  BTFSC  0B.7
0AE0:  BSF    28.7
0AE1:  BCF    0B.7
....................          delay_ms(100); 
0AE2:  MOVLW  64
0AE3:  MOVWF  65
0AE4:  BCF    0A.3
0AE5:  CALL   287
0AE6:  BSF    0A.3
0AE7:  BTFSC  28.7
0AE8:  BSF    0B.7
....................           
.................... } 
....................                  if((id_flag==1) && (glag_1==1)) 
0AE9:  BTFSS  53.0
0AEA:  GOTO   36C
0AEB:  BTFSS  53.3
0AEC:  GOTO   36C
....................                   { 
....................                      if((a[10]=='5') && (a[11]=='1')) 
0AED:  MOVF   4E,W
0AEE:  SUBLW  35
0AEF:  BTFSS  03.2
0AF0:  GOTO   337
0AF1:  MOVF   4F,W
0AF2:  SUBLW  31
0AF3:  BTFSS  03.2
0AF4:  GOTO   337
....................                      { 
....................                               o=0;l=1; 
0AF5:  BCF    54.4
0AF6:  BSF    54.0
....................                               Z; 
0AF7:  MOVLW  4D
0AF8:  BTFSS  0C.4
0AF9:  GOTO   2F8
0AFA:  MOVWF  19
....................                               command(0x80); 
0AFB:  MOVLW  80
0AFC:  MOVWF  5C
0AFD:  BCF    0A.3
0AFE:  CALL   324
0AFF:  BSF    0A.3
....................                               data("DUES:RS.100"); 
0B00:  CLRF   59
0B01:  MOVF   59,W
0B02:  BCF    0A.3
0B03:  CALL   120
0B04:  BSF    0A.3
0B05:  IORLW  00
0B06:  BTFSC  03.2
0B07:  GOTO   30E
0B08:  INCF   59,F
0B09:  MOVWF  61
0B0A:  BCF    0A.3
0B0B:  CALL   331
0B0C:  BSF    0A.3
0B0D:  GOTO   301
....................                               command(0xc0); 
0B0E:  MOVLW  C0
0B0F:  MOVWF  5C
0B10:  BCF    0A.3
0B11:  CALL   324
0B12:  BSF    0A.3
....................                               data("WANT TO PAY"); 
0B13:  CLRF   59
0B14:  MOVF   59,W
0B15:  BCF    0A.3
0B16:  CALL   130
0B17:  BSF    0A.3
0B18:  IORLW  00
0B19:  BTFSC  03.2
0B1A:  GOTO   321
0B1B:  INCF   59,F
0B1C:  MOVWF  61
0B1D:  BCF    0A.3
0B1E:  CALL   331
0B1F:  BSF    0A.3
0B20:  GOTO   314
....................                               command(0x94); 
0B21:  MOVLW  94
0B22:  MOVWF  5C
0B23:  BCF    0A.3
0B24:  CALL   324
0B25:  BSF    0A.3
....................                               data("ENTER AMOUNT:"); 
0B26:  CLRF   59
0B27:  MOVF   59,W
0B28:  BCF    0A.3
0B29:  CALL   140
0B2A:  BSF    0A.3
0B2B:  IORLW  00
0B2C:  BTFSC  03.2
0B2D:  GOTO   334
0B2E:  INCF   59,F
0B2F:  MOVWF  61
0B30:  BCF    0A.3
0B31:  CALL   331
0B32:  BSF    0A.3
0B33:  GOTO   327
....................                               withdrawal_amount(); 
0B34:  BCF    0A.3
0B35:  CALL   3EB
0B36:  BSF    0A.3
....................                                } 
....................                                   if((a[9]=='5') && (a[10]=='3')) 
0B37:  MOVF   4D,W
0B38:  SUBLW  35
0B39:  BTFSS  03.2
0B3A:  GOTO   36B
0B3B:  MOVF   4E,W
0B3C:  SUBLW  33
0B3D:  BTFSS  03.2
0B3E:  GOTO   36B
....................                                   { 
....................                                        l=0;o=0; 
0B3F:  BCF    54.0
0B40:  BCF    54.4
....................                                        Y; 
0B41:  MOVLW  4C
0B42:  BTFSS  0C.4
0B43:  GOTO   342
0B44:  MOVWF  19
....................                                        command(0x80); 
0B45:  MOVLW  80
0B46:  MOVWF  5C
0B47:  BCF    0A.3
0B48:  CALL   324
0B49:  BSF    0A.3
....................                                        data("  NO DUES  "); 
0B4A:  CLRF   59
0B4B:  MOVF   59,W
0B4C:  BCF    0A.3
0B4D:  CALL   152
0B4E:  BSF    0A.3
0B4F:  IORLW  00
0B50:  BTFSC  03.2
0B51:  GOTO   358
0B52:  INCF   59,F
0B53:  MOVWF  61
0B54:  BCF    0A.3
0B55:  CALL   331
0B56:  BSF    0A.3
0B57:  GOTO   34B
....................                                        command(0xc0); 
0B58:  MOVLW  C0
0B59:  MOVWF  5C
0B5A:  BCF    0A.3
0B5B:  CALL   324
0B5C:  BSF    0A.3
....................                                        data("AMOUNT PAID"); 
0B5D:  CLRF   59
0B5E:  MOVF   59,W
0B5F:  BCF    0A.3
0B60:  CALL   162
0B61:  BSF    0A.3
0B62:  IORLW  00
0B63:  BTFSC  03.2
0B64:  GOTO   36B
0B65:  INCF   59,F
0B66:  MOVWF  61
0B67:  BCF    0A.3
0B68:  CALL   331
0B69:  BSF    0A.3
0B6A:  GOTO   35E
....................                                         } 
....................                                            id_flag=0; 
0B6B:  BCF    53.0
....................                 } 
.................... if(x=='C')                                                           ////// CANTEEN 
0B6C:  MOVF   50,W
0B6D:  SUBLW  43
0B6E:  BTFSS  03.2
0B6F:  GOTO   3A9
.................... { 
....................          x=0;o=0;glag_1=0;glag=0;glag_2=1;glag_3=0;glag_4=0; 
0B70:  CLRF   50
0B71:  BCF    54.4
0B72:  BCF    53.3
0B73:  BCF    53.2
0B74:  BSF    53.4
0B75:  BCF    53.5
0B76:  BCF    53.6
....................          putc('C'); 
0B77:  MOVLW  43
0B78:  BTFSS  0C.4
0B79:  GOTO   378
0B7A:  MOVWF  19
....................          command(0x01); 
0B7B:  MOVLW  01
0B7C:  MOVWF  5C
0B7D:  BCF    0A.3
0B7E:  CALL   324
0B7F:  BSF    0A.3
0B80:  CLRF   28
0B81:  BTFSC  0B.7
0B82:  BSF    28.7
0B83:  BCF    0B.7
....................          delay_ms(2); 
0B84:  MOVLW  02
0B85:  MOVWF  65
0B86:  BCF    0A.3
0B87:  CALL   287
0B88:  BSF    0A.3
0B89:  BTFSC  28.7
0B8A:  BSF    0B.7
....................          command(0x80); 
0B8B:  MOVLW  80
0B8C:  MOVWF  5C
0B8D:  BCF    0A.3
0B8E:  CALL   324
0B8F:  BSF    0A.3
....................          data("CANTEEN:"); 
0B90:  CLRF   59
0B91:  MOVF   59,W
0B92:  BCF    0A.3
0B93:  CALL   172
0B94:  BSF    0A.3
0B95:  IORLW  00
0B96:  BTFSC  03.2
0B97:  GOTO   39E
0B98:  INCF   59,F
0B99:  MOVWF  61
0B9A:  BCF    0A.3
0B9B:  CALL   331
0B9C:  BSF    0A.3
0B9D:  GOTO   391
0B9E:  CLRF   28
0B9F:  BTFSC  0B.7
0BA0:  BSF    28.7
0BA1:  BCF    0B.7
....................          delay_ms(100); 
0BA2:  MOVLW  64
0BA3:  MOVWF  65
0BA4:  BCF    0A.3
0BA5:  CALL   287
0BA6:  BSF    0A.3
0BA7:  BTFSC  28.7
0BA8:  BSF    0B.7
....................           
.................... } 
....................                 if((id_flag==1) && (glag_2==1)) 
0BA9:  BTFSS  53.0
0BAA:  GOTO   452
0BAB:  BTFSS  53.4
0BAC:  GOTO   452
....................                  { 
....................                     if((a[10]=='5') && (a[11]=='1')) 
0BAD:  MOVF   4E,W
0BAE:  SUBLW  35
0BAF:  BTFSS  03.2
0BB0:  GOTO   3FF
0BB1:  MOVF   4F,W
0BB2:  SUBLW  31
0BB3:  BTFSS  03.2
0BB4:  GOTO   3FF
....................                     { 
....................                            m=1;o=0; 
0BB5:  BSF    54.1
0BB6:  BCF    54.4
....................                            Z; 
0BB7:  MOVLW  4D
0BB8:  BTFSS  0C.4
0BB9:  GOTO   3B8
0BBA:  MOVWF  19
....................                            putc('@'); 
0BBB:  MOVLW  40
0BBC:  BTFSS  0C.4
0BBD:  GOTO   3BC
0BBE:  MOVWF  19
....................                            putc('M'); 
0BBF:  MOVLW  4D
0BC0:  BTFSS  0C.4
0BC1:  GOTO   3C0
0BC2:  MOVWF  19
....................                            command(0x94); 
0BC3:  MOVLW  94
0BC4:  MOVWF  5C
0BC5:  BCF    0A.3
0BC6:  CALL   324
0BC7:  BSF    0A.3
....................                            data("ENTER AMOUNT:"); 
0BC8:  CLRF   59
0BC9:  MOVF   59,W
0BCA:  BCF    0A.3
0BCB:  CALL   140
0BCC:  BSF    0A.3
0BCD:  IORLW  00
0BCE:  BTFSC  03.2
0BCF:  GOTO   3D6
0BD0:  INCF   59,F
0BD1:  MOVWF  61
0BD2:  BCF    0A.3
0BD3:  CALL   331
0BD4:  BSF    0A.3
0BD5:  GOTO   3C9
....................                            withdrawal_amount(); 
0BD6:  BCF    0A.3
0BD7:  CALL   3EB
0BD8:  BSF    0A.3
....................                            command(0x80); 
0BD9:  MOVLW  80
0BDA:  MOVWF  5C
0BDB:  BCF    0A.3
0BDC:  CALL   324
0BDD:  BSF    0A.3
....................                            data("AMOUNT PAID"); 
0BDE:  CLRF   59
0BDF:  MOVF   59,W
0BE0:  BCF    0A.3
0BE1:  CALL   162
0BE2:  BSF    0A.3
0BE3:  IORLW  00
0BE4:  BTFSC  03.2
0BE5:  GOTO   3EC
0BE6:  INCF   59,F
0BE7:  MOVWF  61
0BE8:  BCF    0A.3
0BE9:  CALL   331
0BEA:  BSF    0A.3
0BEB:  GOTO   3DF
....................                            command(0xc0); 
0BEC:  MOVLW  C0
0BED:  MOVWF  5C
0BEE:  BCF    0A.3
0BEF:  CALL   324
0BF0:  BSF    0A.3
....................                            data("BY DIVYA"); 
0BF1:  CLRF   59
0BF2:  MOVF   59,W
0BF3:  BCF    0A.3
0BF4:  CALL   17F
0BF5:  BSF    0A.3
0BF6:  IORLW  00
0BF7:  BTFSC  03.2
0BF8:  GOTO   3FF
0BF9:  INCF   59,F
0BFA:  MOVWF  61
0BFB:  BCF    0A.3
0BFC:  CALL   331
0BFD:  BSF    0A.3
0BFE:  GOTO   3F2
....................  
....................                                } 
....................                                   if((a[9]=='5') && (a[10]=='3')) 
0BFF:  MOVF   4D,W
0C00:  SUBLW  35
0C01:  BTFSS  03.2
0C02:  GOTO   451
0C03:  MOVF   4E,W
0C04:  SUBLW  33
0C05:  BTFSS  03.2
0C06:  GOTO   451
....................                                   { 
....................                                        m=0;o=0; 
0C07:  BCF    54.1
0C08:  BCF    54.4
....................                                        Y; 
0C09:  MOVLW  4C
0C0A:  BTFSS  0C.4
0C0B:  GOTO   40A
0C0C:  MOVWF  19
....................                                        putc('@'); 
0C0D:  MOVLW  40
0C0E:  BTFSS  0C.4
0C0F:  GOTO   40E
0C10:  MOVWF  19
....................                                        putc('L'); 
0C11:  MOVLW  4C
0C12:  BTFSS  0C.4
0C13:  GOTO   412
0C14:  MOVWF  19
....................                                        command(0x94); 
0C15:  MOVLW  94
0C16:  MOVWF  5C
0C17:  BCF    0A.3
0C18:  CALL   324
0C19:  BSF    0A.3
....................                                        data("ENTER AMOUNT:"); 
0C1A:  CLRF   59
0C1B:  MOVF   59,W
0C1C:  BCF    0A.3
0C1D:  CALL   140
0C1E:  BSF    0A.3
0C1F:  IORLW  00
0C20:  BTFSC  03.2
0C21:  GOTO   428
0C22:  INCF   59,F
0C23:  MOVWF  61
0C24:  BCF    0A.3
0C25:  CALL   331
0C26:  BSF    0A.3
0C27:  GOTO   41B
....................                                        withdrawal_amount(); 
0C28:  BCF    0A.3
0C29:  CALL   3EB
0C2A:  BSF    0A.3
....................                                        command(0x80); 
0C2B:  MOVLW  80
0C2C:  MOVWF  5C
0C2D:  BCF    0A.3
0C2E:  CALL   324
0C2F:  BSF    0A.3
....................                                        data("AMOUNT PAID"); 
0C30:  CLRF   59
0C31:  MOVF   59,W
0C32:  BCF    0A.3
0C33:  CALL   162
0C34:  BSF    0A.3
0C35:  IORLW  00
0C36:  BTFSC  03.2
0C37:  GOTO   43E
0C38:  INCF   59,F
0C39:  MOVWF  61
0C3A:  BCF    0A.3
0C3B:  CALL   331
0C3C:  BSF    0A.3
0C3D:  GOTO   431
....................                                        command(0xc0); 
0C3E:  MOVLW  C0
0C3F:  MOVWF  5C
0C40:  BCF    0A.3
0C41:  CALL   324
0C42:  BSF    0A.3
....................                                        data("BY RAMYA"); 
0C43:  CLRF   59
0C44:  MOVF   59,W
0C45:  BCF    0A.3
0C46:  CALL   18C
0C47:  BSF    0A.3
0C48:  IORLW  00
0C49:  BTFSC  03.2
0C4A:  GOTO   451
0C4B:  INCF   59,F
0C4C:  MOVWF  61
0C4D:  BCF    0A.3
0C4E:  CALL   331
0C4F:  BSF    0A.3
0C50:  GOTO   444
....................                                                } 
....................                                                  id_flag=0; 
0C51:  BCF    53.0
....................                  } 
.................... if(x=='D')                                                           /////// HOSTEL 
0C52:  MOVF   50,W
0C53:  SUBLW  44
0C54:  BTFSS  03.2
0C55:  GOTO   48F
.................... { 
....................             x=0;o=0;glag=0;glag_1=0;glag_2=0;glag_4=0;glag_3=1; 
0C56:  CLRF   50
0C57:  BCF    54.4
0C58:  BCF    53.2
0C59:  BCF    53.3
0C5A:  BCF    53.4
0C5B:  BCF    53.6
0C5C:  BSF    53.5
....................             putc('D'); 
0C5D:  MOVLW  44
0C5E:  BTFSS  0C.4
0C5F:  GOTO   45E
0C60:  MOVWF  19
....................             command(0x01); 
0C61:  MOVLW  01
0C62:  MOVWF  5C
0C63:  BCF    0A.3
0C64:  CALL   324
0C65:  BSF    0A.3
0C66:  CLRF   28
0C67:  BTFSC  0B.7
0C68:  BSF    28.7
0C69:  BCF    0B.7
....................             delay_ms(2); 
0C6A:  MOVLW  02
0C6B:  MOVWF  65
0C6C:  BCF    0A.3
0C6D:  CALL   287
0C6E:  BSF    0A.3
0C6F:  BTFSC  28.7
0C70:  BSF    0B.7
....................             command(0x80); 
0C71:  MOVLW  80
0C72:  MOVWF  5C
0C73:  BCF    0A.3
0C74:  CALL   324
0C75:  BSF    0A.3
....................             data("HOSTEL:"); 
0C76:  CLRF   59
0C77:  MOVF   59,W
0C78:  BCF    0A.3
0C79:  CALL   199
0C7A:  BSF    0A.3
0C7B:  IORLW  00
0C7C:  BTFSC  03.2
0C7D:  GOTO   484
0C7E:  INCF   59,F
0C7F:  MOVWF  61
0C80:  BCF    0A.3
0C81:  CALL   331
0C82:  BSF    0A.3
0C83:  GOTO   477
0C84:  CLRF   28
0C85:  BTFSC  0B.7
0C86:  BSF    28.7
0C87:  BCF    0B.7
....................             delay_ms(100); 
0C88:  MOVLW  64
0C89:  MOVWF  65
0C8A:  BCF    0A.3
0C8B:  CALL   287
0C8C:  BSF    0A.3
0C8D:  BTFSC  28.7
0C8E:  BSF    0B.7
....................              
.................... } 
....................                if((id_flag==1) && (glag_3==1)) 
0C8F:  BTFSS  53.0
0C90:  GOTO   528
0C91:  BTFSS  53.5
0C92:  GOTO   528
....................                   { 
....................                      if((a[10]=='5') && (a[11]=='1')) 
0C93:  MOVF   4E,W
0C94:  SUBLW  35
0C95:  BTFSS  03.2
0C96:  GOTO   4DD
0C97:  MOVF   4F,W
0C98:  SUBLW  31
0C99:  BTFSS  03.2
0C9A:  GOTO   4DD
....................                      { 
....................                            n=1;o=0; 
0C9B:  BSF    54.2
0C9C:  BCF    54.4
....................                            Z; 
0C9D:  MOVLW  4D
0C9E:  BTFSS  0C.4
0C9F:  GOTO   49E
0CA0:  MOVWF  19
....................                            command(0x94); 
0CA1:  MOVLW  94
0CA2:  MOVWF  5C
0CA3:  BCF    0A.3
0CA4:  CALL   324
0CA5:  BSF    0A.3
....................                            data("ENTER AMOUNT:"); 
0CA6:  CLRF   59
0CA7:  MOVF   59,W
0CA8:  BCF    0A.3
0CA9:  CALL   140
0CAA:  BSF    0A.3
0CAB:  IORLW  00
0CAC:  BTFSC  03.2
0CAD:  GOTO   4B4
0CAE:  INCF   59,F
0CAF:  MOVWF  61
0CB0:  BCF    0A.3
0CB1:  CALL   331
0CB2:  BSF    0A.3
0CB3:  GOTO   4A7
....................                            withdrawal_amount(); 
0CB4:  BCF    0A.3
0CB5:  CALL   3EB
0CB6:  BSF    0A.3
....................                            command(0x80); 
0CB7:  MOVLW  80
0CB8:  MOVWF  5C
0CB9:  BCF    0A.3
0CBA:  CALL   324
0CBB:  BSF    0A.3
....................                            data("AMOUNT PAID"); 
0CBC:  CLRF   59
0CBD:  MOVF   59,W
0CBE:  BCF    0A.3
0CBF:  CALL   162
0CC0:  BSF    0A.3
0CC1:  IORLW  00
0CC2:  BTFSC  03.2
0CC3:  GOTO   4CA
0CC4:  INCF   59,F
0CC5:  MOVWF  61
0CC6:  BCF    0A.3
0CC7:  CALL   331
0CC8:  BSF    0A.3
0CC9:  GOTO   4BD
....................                            command(0xc0); 
0CCA:  MOVLW  C0
0CCB:  MOVWF  5C
0CCC:  BCF    0A.3
0CCD:  CALL   324
0CCE:  BSF    0A.3
....................                            data("BY DIVYA"); 
0CCF:  CLRF   59
0CD0:  MOVF   59,W
0CD1:  BCF    0A.3
0CD2:  CALL   17F
0CD3:  BSF    0A.3
0CD4:  IORLW  00
0CD5:  BTFSC  03.2
0CD6:  GOTO   4DD
0CD7:  INCF   59,F
0CD8:  MOVWF  61
0CD9:  BCF    0A.3
0CDA:  CALL   331
0CDB:  BSF    0A.3
0CDC:  GOTO   4D0
....................                                } 
....................                                   if((a[9]=='5') && (a[10]=='3')) 
0CDD:  MOVF   4D,W
0CDE:  SUBLW  35
0CDF:  BTFSS  03.2
0CE0:  GOTO   527
0CE1:  MOVF   4E,W
0CE2:  SUBLW  33
0CE3:  BTFSS  03.2
0CE4:  GOTO   527
....................                                    { 
....................                                        n=0;o=0; 
0CE5:  BCF    54.2
0CE6:  BCF    54.4
....................                                        Y; 
0CE7:  MOVLW  4C
0CE8:  BTFSS  0C.4
0CE9:  GOTO   4E8
0CEA:  MOVWF  19
....................                                        command(0x94); 
0CEB:  MOVLW  94
0CEC:  MOVWF  5C
0CED:  BCF    0A.3
0CEE:  CALL   324
0CEF:  BSF    0A.3
....................                                        data("ENTER AMOUNT:");    
0CF0:  CLRF   59
0CF1:  MOVF   59,W
0CF2:  BCF    0A.3
0CF3:  CALL   140
0CF4:  BSF    0A.3
0CF5:  IORLW  00
0CF6:  BTFSC  03.2
0CF7:  GOTO   4FE
0CF8:  INCF   59,F
0CF9:  MOVWF  61
0CFA:  BCF    0A.3
0CFB:  CALL   331
0CFC:  BSF    0A.3
0CFD:  GOTO   4F1
....................                                        withdrawal_amount(); 
0CFE:  BCF    0A.3
0CFF:  CALL   3EB
0D00:  BSF    0A.3
....................                                        command(0x80); 
0D01:  MOVLW  80
0D02:  MOVWF  5C
0D03:  BCF    0A.3
0D04:  CALL   324
0D05:  BSF    0A.3
....................                                        data("AMOUNT PAID"); 
0D06:  CLRF   59
0D07:  MOVF   59,W
0D08:  BCF    0A.3
0D09:  CALL   162
0D0A:  BSF    0A.3
0D0B:  IORLW  00
0D0C:  BTFSC  03.2
0D0D:  GOTO   514
0D0E:  INCF   59,F
0D0F:  MOVWF  61
0D10:  BCF    0A.3
0D11:  CALL   331
0D12:  BSF    0A.3
0D13:  GOTO   507
....................                                        command(0xc0); 
0D14:  MOVLW  C0
0D15:  MOVWF  5C
0D16:  BCF    0A.3
0D17:  CALL   324
0D18:  BSF    0A.3
....................                                        data("BY RAMYA"); 
0D19:  CLRF   59
0D1A:  MOVF   59,W
0D1B:  BCF    0A.3
0D1C:  CALL   18C
0D1D:  BSF    0A.3
0D1E:  IORLW  00
0D1F:  BTFSC  03.2
0D20:  GOTO   527
0D21:  INCF   59,F
0D22:  MOVWF  61
0D23:  BCF    0A.3
0D24:  CALL   331
0D25:  BSF    0A.3
0D26:  GOTO   51A
....................                                              } 
....................                                                  id_flag=0; 
0D27:  BCF    53.0
....................                  } 
....................  
.................... if(x=='E')                                                              ////// BANKS 
0D28:  MOVF   50,W
0D29:  SUBLW  45
0D2A:  BTFSS  03.2
0D2B:  GOTO   598
.................... { 
....................          x=0;o=0;glag_4=1;glag_3=0;glag_2=0;glag_1=0;glag=0; 
0D2C:  CLRF   50
0D2D:  BCF    54.4
0D2E:  BSF    53.6
0D2F:  BCF    53.5
0D30:  BCF    53.4
0D31:  BCF    53.3
0D32:  BCF    53.2
....................          putc('E'); 
0D33:  MOVLW  45
0D34:  BTFSS  0C.4
0D35:  GOTO   534
0D36:  MOVWF  19
....................          command(0x01); 
0D37:  MOVLW  01
0D38:  MOVWF  5C
0D39:  BCF    0A.3
0D3A:  CALL   324
0D3B:  BSF    0A.3
0D3C:  CLRF   28
0D3D:  BTFSC  0B.7
0D3E:  BSF    28.7
0D3F:  BCF    0B.7
....................          delay_ms(2); 
0D40:  MOVLW  02
0D41:  MOVWF  65
0D42:  BCF    0A.3
0D43:  CALL   287
0D44:  BSF    0A.3
0D45:  BTFSC  28.7
0D46:  BSF    0B.7
....................          command(0x80); 
0D47:  MOVLW  80
0D48:  MOVWF  5C
0D49:  BCF    0A.3
0D4A:  CALL   324
0D4B:  BSF    0A.3
....................          data("BANKS:"); 
0D4C:  CLRF   59
0D4D:  MOVF   59,W
0D4E:  BCF    0A.3
0D4F:  CALL   1A5
0D50:  BSF    0A.3
0D51:  IORLW  00
0D52:  BTFSC  03.2
0D53:  GOTO   55A
0D54:  INCF   59,F
0D55:  MOVWF  61
0D56:  BCF    0A.3
0D57:  CALL   331
0D58:  BSF    0A.3
0D59:  GOTO   54D
....................          command(0x86); 
0D5A:  MOVLW  86
0D5B:  MOVWF  5C
0D5C:  BCF    0A.3
0D5D:  CALL   324
0D5E:  BSF    0A.3
....................          data("HDFC-K.7"); 
0D5F:  CLRF   59
0D60:  MOVF   59,W
0D61:  BCF    0A.3
0D62:  CALL   1B0
0D63:  BSF    0A.3
0D64:  IORLW  00
0D65:  BTFSC  03.2
0D66:  GOTO   56D
0D67:  INCF   59,F
0D68:  MOVWF  61
0D69:  BCF    0A.3
0D6A:  CALL   331
0D6B:  BSF    0A.3
0D6C:  GOTO   560
....................          command(0xc0); 
0D6D:  MOVLW  C0
0D6E:  MOVWF  5C
0D6F:  BCF    0A.3
0D70:  CALL   324
0D71:  BSF    0A.3
....................          data("SBI-K.8"); 
0D72:  CLRF   59
0D73:  MOVF   59,W
0D74:  BCF    0A.3
0D75:  CALL   1BD
0D76:  BSF    0A.3
0D77:  IORLW  00
0D78:  BTFSC  03.2
0D79:  GOTO   580
0D7A:  INCF   59,F
0D7B:  MOVWF  61
0D7C:  BCF    0A.3
0D7D:  CALL   331
0D7E:  BSF    0A.3
0D7F:  GOTO   573
....................          command(0x94); 
0D80:  MOVLW  94
0D81:  MOVWF  5C
0D82:  BCF    0A.3
0D83:  CALL   324
0D84:  BSF    0A.3
....................          data("IB-K.9"); 
0D85:  CLRF   59
0D86:  MOVF   59,W
0D87:  BCF    0A.3
0D88:  CALL   1C9
0D89:  BSF    0A.3
0D8A:  IORLW  00
0D8B:  BTFSC  03.2
0D8C:  GOTO   593
0D8D:  INCF   59,F
0D8E:  MOVWF  61
0D8F:  BCF    0A.3
0D90:  CALL   331
0D91:  BSF    0A.3
0D92:  GOTO   586
....................          command(0xd4); 
0D93:  MOVLW  D4
0D94:  MOVWF  5C
0D95:  BCF    0A.3
0D96:  CALL   324
0D97:  BSF    0A.3
....................  
.................... } 
.................... if((x==7) && (glag_4==1)) 
0D98:  MOVF   50,W
0D99:  SUBLW  07
0D9A:  BTFSS  03.2
0D9B:  GOTO   5DC
0D9C:  BTFSS  53.6
0D9D:  GOTO   5DC
.................... { 
....................          t=1;glag_4=0; 
0D9E:  MOVLW  01
0D9F:  MOVWF  56
0DA0:  BCF    53.6
....................          command(0x01); 
0DA1:  MOVWF  5C
0DA2:  BCF    0A.3
0DA3:  CALL   324
0DA4:  BSF    0A.3
....................          command(0x80); 
0DA5:  MOVLW  80
0DA6:  MOVWF  5C
0DA7:  BCF    0A.3
0DA8:  CALL   324
0DA9:  BSF    0A.3
....................          putc('J'); 
0DAA:  MOVLW  4A
0DAB:  BTFSS  0C.4
0DAC:  GOTO   5AB
0DAD:  MOVWF  19
....................          data("HDFC BANK HAS BEEN   "); 
0DAE:  CLRF   59
0DAF:  MOVF   59,W
0DB0:  BCF    0A.3
0DB1:  CALL   1D4
0DB2:  BSF    0A.3
0DB3:  IORLW  00
0DB4:  BTFSC  03.2
0DB5:  GOTO   5BC
0DB6:  INCF   59,F
0DB7:  MOVWF  61
0DB8:  BCF    0A.3
0DB9:  CALL   331
0DBA:  BSF    0A.3
0DBB:  GOTO   5AF
....................          command(0xc0); 
0DBC:  MOVLW  C0
0DBD:  MOVWF  5C
0DBE:  BCF    0A.3
0DBF:  CALL   324
0DC0:  BSF    0A.3
....................          data("     SELECTED    "); 
0DC1:  CLRF   59
0DC2:  MOVF   59,W
0DC3:  BCF    0A.3
0DC4:  CALL   1EE
0DC5:  BSF    0A.3
0DC6:  IORLW  00
0DC7:  BTFSC  03.2
0DC8:  GOTO   5CF
0DC9:  INCF   59,F
0DCA:  MOVWF  61
0DCB:  BCF    0A.3
0DCC:  CALL   331
0DCD:  BSF    0A.3
0DCE:  GOTO   5C2
0DCF:  CLRF   28
0DD0:  BTFSC  0B.7
0DD1:  BSF    28.7
0DD2:  BCF    0B.7
....................          delay_ms(2); 
0DD3:  MOVLW  02
0DD4:  MOVWF  65
0DD5:  BCF    0A.3
0DD6:  CALL   287
0DD7:  BSF    0A.3
0DD8:  BTFSC  28.7
0DD9:  BSF    0B.7
....................          RELAY=1; 
0DDA:  BSF    07.0
.................... } 
.................... else if((x==8) && (glag_4==1)) 
0DDB:  GOTO   663
0DDC:  MOVF   50,W
0DDD:  SUBLW  08
0DDE:  BTFSS  03.2
0DDF:  GOTO   620
0DE0:  BTFSS  53.6
0DE1:  GOTO   620
.................... { 
....................          t=1;glag_4=0; 
0DE2:  MOVLW  01
0DE3:  MOVWF  56
0DE4:  BCF    53.6
....................          command(0x01); 
0DE5:  MOVWF  5C
0DE6:  BCF    0A.3
0DE7:  CALL   324
0DE8:  BSF    0A.3
....................          putc('K'); 
0DE9:  MOVLW  4B
0DEA:  BTFSS  0C.4
0DEB:  GOTO   5EA
0DEC:  MOVWF  19
....................          command(0x80); 
0DED:  MOVLW  80
0DEE:  MOVWF  5C
0DEF:  BCF    0A.3
0DF0:  CALL   324
0DF1:  BSF    0A.3
....................          data("SBI BANK HAS BEEN   "); 
0DF2:  CLRF   59
0DF3:  MOVF   59,W
0DF4:  BCF    0A.3
0DF5:  CALL   207
0DF6:  BSF    0A.3
0DF7:  IORLW  00
0DF8:  BTFSC  03.2
0DF9:  GOTO   600
0DFA:  INCF   59,F
0DFB:  MOVWF  61
0DFC:  BCF    0A.3
0DFD:  CALL   331
0DFE:  BSF    0A.3
0DFF:  GOTO   5F3
....................          command(0xc0); 
0E00:  MOVLW  C0
0E01:  MOVWF  5C
0E02:  BCF    0A.3
0E03:  CALL   324
0E04:  BSF    0A.3
....................          data("     SELECTED    "); 
0E05:  CLRF   59
0E06:  MOVF   59,W
0E07:  BCF    0A.3
0E08:  CALL   1EE
0E09:  BSF    0A.3
0E0A:  IORLW  00
0E0B:  BTFSC  03.2
0E0C:  GOTO   613
0E0D:  INCF   59,F
0E0E:  MOVWF  61
0E0F:  BCF    0A.3
0E10:  CALL   331
0E11:  BSF    0A.3
0E12:  GOTO   606
0E13:  CLRF   28
0E14:  BTFSC  0B.7
0E15:  BSF    28.7
0E16:  BCF    0B.7
....................          delay_ms(2); 
0E17:  MOVLW  02
0E18:  MOVWF  65
0E19:  BCF    0A.3
0E1A:  CALL   287
0E1B:  BSF    0A.3
0E1C:  BTFSC  28.7
0E1D:  BSF    0B.7
....................          RELAY=1; 
0E1E:  BSF    07.0
.................... } 
.................... else if((x==9) && (glag_4==1)) 
0E1F:  GOTO   663
0E20:  MOVF   50,W
0E21:  SUBLW  09
0E22:  BTFSS  03.2
0E23:  GOTO   663
0E24:  BTFSS  53.6
0E25:  GOTO   663
.................... { 
....................          t=1;glag_4=0; 
0E26:  MOVLW  01
0E27:  MOVWF  56
0E28:  BCF    53.6
....................          command(0x01); 
0E29:  MOVWF  5C
0E2A:  BCF    0A.3
0E2B:  CALL   324
0E2C:  BSF    0A.3
....................          putc('O'); 
0E2D:  MOVLW  4F
0E2E:  BTFSS  0C.4
0E2F:  GOTO   62E
0E30:  MOVWF  19
....................          command(0x80); 
0E31:  MOVLW  80
0E32:  MOVWF  5C
0E33:  BCF    0A.3
0E34:  CALL   324
0E35:  BSF    0A.3
....................          data("IB BANK HAS BEEN   "); 
0E36:  CLRF   59
0E37:  MOVF   59,W
0E38:  BCF    0A.3
0E39:  CALL   220
0E3A:  BSF    0A.3
0E3B:  IORLW  00
0E3C:  BTFSC  03.2
0E3D:  GOTO   644
0E3E:  INCF   59,F
0E3F:  MOVWF  61
0E40:  BCF    0A.3
0E41:  CALL   331
0E42:  BSF    0A.3
0E43:  GOTO   637
....................          command(0xc0); 
0E44:  MOVLW  C0
0E45:  MOVWF  5C
0E46:  BCF    0A.3
0E47:  CALL   324
0E48:  BSF    0A.3
....................          data("     SELECTED    "); 
0E49:  CLRF   59
0E4A:  MOVF   59,W
0E4B:  BCF    0A.3
0E4C:  CALL   1EE
0E4D:  BSF    0A.3
0E4E:  IORLW  00
0E4F:  BTFSC  03.2
0E50:  GOTO   657
0E51:  INCF   59,F
0E52:  MOVWF  61
0E53:  BCF    0A.3
0E54:  CALL   331
0E55:  BSF    0A.3
0E56:  GOTO   64A
0E57:  CLRF   28
0E58:  BTFSC  0B.7
0E59:  BSF    28.7
0E5A:  BCF    0B.7
....................          delay_ms(2); 
0E5B:  MOVLW  02
0E5C:  MOVWF  65
0E5D:  BCF    0A.3
0E5E:  CALL   287
0E5F:  BSF    0A.3
0E60:  BTFSC  28.7
0E61:  BSF    0B.7
....................          RELAY=1; 
0E62:  BSF    07.0
.................... } 
....................    if((id_flag==1) && ( t==1)) 
0E63:  BTFSS  53.0
0E64:  GOTO   6E6
0E65:  DECFSZ 56,W
0E66:  GOTO   6E6
....................       { 
....................          
....................         if((a[10]=='5') && (a[11]=='1')) 
0E67:  MOVF   4E,W
0E68:  SUBLW  35
0E69:  BTFSS  03.2
0E6A:  GOTO   6A7
0E6B:  MOVF   4F,W
0E6C:  SUBLW  31
0E6D:  BTFSS  03.2
0E6E:  GOTO   6A7
....................               { 
....................          t=0;x=0;p=0;id_flag=0;glag_4=0;r=1;id=0; 
0E6F:  CLRF   56
0E70:  CLRF   50
0E71:  BCF    54.3
0E72:  BCF    53.0
0E73:  BCF    53.6
0E74:  MOVLW  01
0E75:  MOVWF  57
0E76:  BCF    55.5
....................          Z; 
0E77:  MOVLW  4D
0E78:  BTFSS  0C.4
0E79:  GOTO   678
0E7A:  MOVWF  19
....................          command(0x01); 
0E7B:  MOVLW  01
0E7C:  MOVWF  5C
0E7D:  BCF    0A.3
0E7E:  CALL   324
0E7F:  BSF    0A.3
....................          command(0x80); 
0E80:  MOVLW  80
0E81:  MOVWF  5C
0E82:  BCF    0A.3
0E83:  CALL   324
0E84:  BSF    0A.3
....................          data("CASH WITHDRA-K.F"); 
0E85:  CLRF   59
0E86:  MOVF   59,W
0E87:  BCF    0A.3
0E88:  CALL   238
0E89:  BSF    0A.3
0E8A:  IORLW  00
0E8B:  BTFSC  03.2
0E8C:  GOTO   693
0E8D:  INCF   59,F
0E8E:  MOVWF  61
0E8F:  BCF    0A.3
0E90:  CALL   331
0E91:  BSF    0A.3
0E92:  GOTO   686
....................          command(0xc0); 
0E93:  MOVLW  C0
0E94:  MOVWF  5C
0E95:  BCF    0A.3
0E96:  CALL   324
0E97:  BSF    0A.3
....................          data("CASH DEPOS-K.G"); 
0E98:  CLRF   59
0E99:  MOVF   59,W
0E9A:  BCF    0A.3
0E9B:  CALL   24D
0E9C:  BSF    0A.3
0E9D:  IORLW  00
0E9E:  BTFSC  03.2
0E9F:  GOTO   6A6
0EA0:  INCF   59,F
0EA1:  MOVWF  61
0EA2:  BCF    0A.3
0EA3:  CALL   331
0EA4:  BSF    0A.3
0EA5:  GOTO   699
....................               } 
....................         else if((a[9]=='5') && (a[10]=='3')) 
0EA6:  GOTO   6E6
0EA7:  MOVF   4D,W
0EA8:  SUBLW  35
0EA9:  BTFSS  03.2
0EAA:  GOTO   6E6
0EAB:  MOVF   4E,W
0EAC:  SUBLW  33
0EAD:  BTFSS  03.2
0EAE:  GOTO   6E6
....................            { 
....................          t=0;x=0;p=0;id_flag=0;glag_4=0;c=1;id=0; 
0EAF:  CLRF   56
0EB0:  CLRF   50
0EB1:  BCF    54.3
0EB2:  BCF    53.0
0EB3:  BCF    53.6
0EB4:  MOVLW  01
0EB5:  MOVWF  58
0EB6:  BCF    55.5
....................          Y; 
0EB7:  MOVLW  4C
0EB8:  BTFSS  0C.4
0EB9:  GOTO   6B8
0EBA:  MOVWF  19
....................          command(0x01); 
0EBB:  MOVLW  01
0EBC:  MOVWF  5C
0EBD:  BCF    0A.3
0EBE:  CALL   324
0EBF:  BSF    0A.3
....................          command(0x80); 
0EC0:  MOVLW  80
0EC1:  MOVWF  5C
0EC2:  BCF    0A.3
0EC3:  CALL   324
0EC4:  BSF    0A.3
....................          data("CASH WITHDRA-K.F"); 
0EC5:  CLRF   59
0EC6:  MOVF   59,W
0EC7:  BCF    0A.3
0EC8:  CALL   238
0EC9:  BSF    0A.3
0ECA:  IORLW  00
0ECB:  BTFSC  03.2
0ECC:  GOTO   6D3
0ECD:  INCF   59,F
0ECE:  MOVWF  61
0ECF:  BCF    0A.3
0ED0:  CALL   331
0ED1:  BSF    0A.3
0ED2:  GOTO   6C6
....................          command(0xc0); 
0ED3:  MOVLW  C0
0ED4:  MOVWF  5C
0ED5:  BCF    0A.3
0ED6:  CALL   324
0ED7:  BSF    0A.3
....................          data("CASH DEPOS-K.G"); 
0ED8:  CLRF   59
0ED9:  MOVF   59,W
0EDA:  BCF    0A.3
0EDB:  CALL   24D
0EDC:  BSF    0A.3
0EDD:  IORLW  00
0EDE:  BTFSC  03.2
0EDF:  GOTO   6E6
0EE0:  INCF   59,F
0EE1:  MOVWF  61
0EE2:  BCF    0A.3
0EE3:  CALL   331
0EE4:  BSF    0A.3
0EE5:  GOTO   6D9
....................                           } 
....................      } 
.................... if((x=='F') && (r==1)) 
0EE6:  MOVF   50,W
0EE7:  SUBLW  46
0EE8:  BTFSS  03.2
0EE9:  GOTO   71D
0EEA:  DECFSZ 57,W
0EEB:  GOTO   71D
.................... { 
....................          x=0;r=0; 
0EEC:  CLRF   50
0EED:  CLRF   57
....................          putc('@'); 
0EEE:  MOVLW  40
0EEF:  BTFSS  0C.4
0EF0:  GOTO   6EF
0EF1:  MOVWF  19
....................          putc('M'); 
0EF2:  MOVLW  4D
0EF3:  BTFSS  0C.4
0EF4:  GOTO   6F3
0EF5:  MOVWF  19
0EF6:  CLRF   28
0EF7:  BTFSC  0B.7
0EF8:  BSF    28.7
0EF9:  BCF    0B.7
....................          delay_ms(2); 
0EFA:  MOVLW  02
0EFB:  MOVWF  65
0EFC:  BCF    0A.3
0EFD:  CALL   287
0EFE:  BSF    0A.3
0EFF:  BTFSC  28.7
0F00:  BSF    0B.7
....................          command(0x01); 
0F01:  MOVLW  01
0F02:  MOVWF  5C
0F03:  BCF    0A.3
0F04:  CALL   324
0F05:  BSF    0A.3
....................          command(0x94); 
0F06:  MOVLW  94
0F07:  MOVWF  5C
0F08:  BCF    0A.3
0F09:  CALL   324
0F0A:  BSF    0A.3
....................          data("ENTER AMOUNT:"); 
0F0B:  CLRF   59
0F0C:  MOVF   59,W
0F0D:  BCF    0A.3
0F0E:  CALL   140
0F0F:  BSF    0A.3
0F10:  IORLW  00
0F11:  BTFSC  03.2
0F12:  GOTO   719
0F13:  INCF   59,F
0F14:  MOVWF  61
0F15:  BCF    0A.3
0F16:  CALL   331
0F17:  BSF    0A.3
0F18:  GOTO   70C
....................          withdrawal_amount(); 
0F19:  BCF    0A.3
0F1A:  CALL   3EB
0F1B:  BSF    0A.3
.................... } 
.................... else if((x=='G') && (r==1)) 
0F1C:  GOTO   753
0F1D:  MOVF   50,W
0F1E:  SUBLW  47
0F1F:  BTFSS  03.2
0F20:  GOTO   753
0F21:  DECFSZ 57,W
0F22:  GOTO   753
.................... { 
....................          x=0;r=0; 
0F23:  CLRF   50
0F24:  CLRF   57
....................          putc('*'); 
0F25:  MOVLW  2A
0F26:  BTFSS  0C.4
0F27:  GOTO   726
0F28:  MOVWF  19
....................          putc('M'); 
0F29:  MOVLW  4D
0F2A:  BTFSS  0C.4
0F2B:  GOTO   72A
0F2C:  MOVWF  19
0F2D:  CLRF   28
0F2E:  BTFSC  0B.7
0F2F:  BSF    28.7
0F30:  BCF    0B.7
....................          delay_ms(2); 
0F31:  MOVLW  02
0F32:  MOVWF  65
0F33:  BCF    0A.3
0F34:  CALL   287
0F35:  BSF    0A.3
0F36:  BTFSC  28.7
0F37:  BSF    0B.7
....................          command(0x01); 
0F38:  MOVLW  01
0F39:  MOVWF  5C
0F3A:  BCF    0A.3
0F3B:  CALL   324
0F3C:  BSF    0A.3
....................          command(0x94); 
0F3D:  MOVLW  94
0F3E:  MOVWF  5C
0F3F:  BCF    0A.3
0F40:  CALL   324
0F41:  BSF    0A.3
....................          data("ENTER AMOUNT:"); 
0F42:  CLRF   59
0F43:  MOVF   59,W
0F44:  BCF    0A.3
0F45:  CALL   140
0F46:  BSF    0A.3
0F47:  IORLW  00
0F48:  BTFSC  03.2
0F49:  GOTO   750
0F4A:  INCF   59,F
0F4B:  MOVWF  61
0F4C:  BCF    0A.3
0F4D:  CALL   331
0F4E:  BSF    0A.3
0F4F:  GOTO   743
....................          deposite_amount(); 
0F50:  BCF    0A.3
0F51:  CALL   4E3
0F52:  BSF    0A.3
.................... } 
....................  
.................... if((x=='F') && (c==1)) 
0F53:  MOVF   50,W
0F54:  SUBLW  46
0F55:  BTFSS  03.2
0F56:  GOTO   78A
0F57:  DECFSZ 58,W
0F58:  GOTO   78A
.................... { 
....................          x=0;c=0; 
0F59:  CLRF   50
0F5A:  CLRF   58
....................          putc('@'); 
0F5B:  MOVLW  40
0F5C:  BTFSS  0C.4
0F5D:  GOTO   75C
0F5E:  MOVWF  19
....................          putc('L'); 
0F5F:  MOVLW  4C
0F60:  BTFSS  0C.4
0F61:  GOTO   760
0F62:  MOVWF  19
0F63:  CLRF   28
0F64:  BTFSC  0B.7
0F65:  BSF    28.7
0F66:  BCF    0B.7
....................          delay_ms(2); 
0F67:  MOVLW  02
0F68:  MOVWF  65
0F69:  BCF    0A.3
0F6A:  CALL   287
0F6B:  BSF    0A.3
0F6C:  BTFSC  28.7
0F6D:  BSF    0B.7
....................          command(0x01); 
0F6E:  MOVLW  01
0F6F:  MOVWF  5C
0F70:  BCF    0A.3
0F71:  CALL   324
0F72:  BSF    0A.3
....................          command(0x94); 
0F73:  MOVLW  94
0F74:  MOVWF  5C
0F75:  BCF    0A.3
0F76:  CALL   324
0F77:  BSF    0A.3
....................          data("ENTER AMOUNT:"); 
0F78:  CLRF   59
0F79:  MOVF   59,W
0F7A:  BCF    0A.3
0F7B:  CALL   140
0F7C:  BSF    0A.3
0F7D:  IORLW  00
0F7E:  BTFSC  03.2
0F7F:  GOTO   786
0F80:  INCF   59,F
0F81:  MOVWF  61
0F82:  BCF    0A.3
0F83:  CALL   331
0F84:  BSF    0A.3
0F85:  GOTO   779
....................          withdrawal_amount(); 
0F86:  BCF    0A.3
0F87:  CALL   3EB
0F88:  BSF    0A.3
.................... } 
.................... else if((x=='G') && (c==1)) 
0F89:  GOTO   7C0
0F8A:  MOVF   50,W
0F8B:  SUBLW  47
0F8C:  BTFSS  03.2
0F8D:  GOTO   7C0
0F8E:  DECFSZ 58,W
0F8F:  GOTO   7C0
.................... { 
....................          x=0;c=0; 
0F90:  CLRF   50
0F91:  CLRF   58
....................          putc('*'); 
0F92:  MOVLW  2A
0F93:  BTFSS  0C.4
0F94:  GOTO   793
0F95:  MOVWF  19
....................          putc('L'); 
0F96:  MOVLW  4C
0F97:  BTFSS  0C.4
0F98:  GOTO   797
0F99:  MOVWF  19
0F9A:  CLRF   28
0F9B:  BTFSC  0B.7
0F9C:  BSF    28.7
0F9D:  BCF    0B.7
....................          delay_ms(2); 
0F9E:  MOVLW  02
0F9F:  MOVWF  65
0FA0:  BCF    0A.3
0FA1:  CALL   287
0FA2:  BSF    0A.3
0FA3:  BTFSC  28.7
0FA4:  BSF    0B.7
....................          command(0x01); 
0FA5:  MOVLW  01
0FA6:  MOVWF  5C
0FA7:  BCF    0A.3
0FA8:  CALL   324
0FA9:  BSF    0A.3
....................          command(0x94); 
0FAA:  MOVLW  94
0FAB:  MOVWF  5C
0FAC:  BCF    0A.3
0FAD:  CALL   324
0FAE:  BSF    0A.3
....................          data("ENTER AMOUNT:"); 
0FAF:  CLRF   59
0FB0:  MOVF   59,W
0FB1:  BCF    0A.3
0FB2:  CALL   140
0FB3:  BSF    0A.3
0FB4:  IORLW  00
0FB5:  BTFSC  03.2
0FB6:  GOTO   7BD
0FB7:  INCF   59,F
0FB8:  MOVWF  61
0FB9:  BCF    0A.3
0FBA:  CALL   331
0FBB:  BSF    0A.3
0FBC:  GOTO   7B0
....................          deposite_amount(); 
0FBD:  BCF    0A.3
0FBE:  CALL   4E3
0FBF:  BSF    0A.3
.................... } 
.................... } 
0FC0:  GOTO   0D7
.................... } 
.................... void withdrawal_amount() 
.................... { 
0FC1:  SLEEP
....................       int1 amount_flag=0; 
*
03EB:  BCF    59.0
....................       int16 count=0; 
03EC:  CLRF   5A
03ED:  CLRF   5B
03EE:  CLRF   28
03EF:  BTFSC  0B.7
03F0:  BSF    28.7
03F1:  BCF    0B.7
....................       delay_ms(2); 
03F2:  MOVLW  02
03F3:  MOVWF  65
03F4:  CALL   287
03F5:  BTFSC  28.7
03F6:  BSF    0B.7
....................       count=0; 
03F7:  CLRF   5B
03F8:  CLRF   5A
....................       rb_flag=0; 
03F9:  BCF    55.3
....................                while(count<5) 
....................                { 
03FA:  MOVF   5B,F
03FB:  BTFSS  03.2
03FC:  GOTO   426
03FD:  MOVF   5A,W
03FE:  SUBLW  04
03FF:  BTFSS  03.0
0400:  GOTO   426
....................                   if(rb_flag==1) 
0401:  BTFSS  55.3
0402:  GOTO   425
....................                    { 
....................                      rb_flag=0; 
0403:  BCF    55.3
....................                      total_no[count]=x|0x30; 
0404:  BCF    03.0
0405:  RLF    5A,W
0406:  MOVWF  79
0407:  RLF    5B,W
0408:  MOVWF  7A
0409:  MOVF   79,W
040A:  ADDLW  30
040B:  MOVWF  04
040C:  MOVF   50,W
040D:  IORLW  30
040E:  INCF   04,F
040F:  CLRF   00
0410:  DECF   04,F
0411:  MOVWF  00
....................                      data(total_no[count]); 
0412:  BCF    03.0
0413:  RLF    5A,W
0414:  MOVWF  79
0415:  RLF    5B,W
0416:  MOVWF  7A
0417:  MOVF   79,W
0418:  ADDLW  30
0419:  MOVWF  04
041A:  INCF   04,F
041B:  MOVF   00,W
041C:  MOVWF  5D
041D:  DECF   04,F
041E:  MOVF   00,W
041F:  MOVWF  5C
0420:  MOVWF  61
0421:  CALL   331
....................                      count++; 
0422:  INCF   5A,F
0423:  BTFSC  03.2
0424:  INCF   5B,F
....................                    } 
....................                } 
0425:  GOTO   3FA
....................                      if(count>=5) 
0426:  MOVF   5B,F
0427:  BTFSS  03.2
0428:  GOTO   42D
0429:  MOVF   5A,W
042A:  SUBLW  04
042B:  BTFSC  03.0
042C:  GOTO   49F
....................                         { 
....................                            count=0; 
042D:  CLRF   5B
042E:  CLRF   5A
....................                            amount_flag=1; 
042F:  BSF    59.0
....................                            enter_amt = 0; 
0430:  CLRF   2B
0431:  CLRF   2A
....................                            enter_amt += (total_no[0]-'0')*10000; 
0432:  MOVLW  30
0433:  SUBWF  30,W
0434:  MOVWF  5C
0435:  MOVF   31,W
0436:  MOVWF  5D
0437:  MOVLW  00
0438:  BTFSS  03.0
0439:  MOVLW  01
043A:  SUBWF  5D,F
043B:  MOVF   5D,W
043C:  MOVWF  5F
043D:  MOVF   5C,W
043E:  MOVWF  5E
043F:  MOVLW  27
0440:  MOVWF  61
0441:  MOVLW  10
0442:  MOVWF  60
0443:  CALL   33E
0444:  MOVF   78,W
0445:  ADDWF  2A,F
0446:  MOVF   79,W
0447:  BTFSC  03.0
0448:  INCFSZ 79,W
0449:  ADDWF  2B,F
....................                            enter_amt += (total_no[1]-'0')*1000; 
044A:  MOVLW  30
044B:  SUBWF  32,W
044C:  MOVWF  5C
044D:  MOVF   33,W
044E:  MOVWF  5D
044F:  MOVLW  00
0450:  BTFSS  03.0
0451:  MOVLW  01
0452:  SUBWF  5D,F
0453:  MOVF   5D,W
0454:  MOVWF  5F
0455:  MOVF   5C,W
0456:  MOVWF  5E
0457:  MOVLW  03
0458:  MOVWF  61
0459:  MOVLW  E8
045A:  MOVWF  60
045B:  CALL   33E
045C:  MOVF   78,W
045D:  ADDWF  2A,F
045E:  MOVF   79,W
045F:  BTFSC  03.0
0460:  INCFSZ 79,W
0461:  ADDWF  2B,F
....................                            enter_amt += (total_no[2]-'0')*100; 
0462:  MOVLW  30
0463:  SUBWF  34,W
0464:  MOVWF  5C
0465:  MOVF   35,W
0466:  MOVWF  5D
0467:  MOVLW  00
0468:  BTFSS  03.0
0469:  MOVLW  01
046A:  SUBWF  5D,F
046B:  MOVF   5D,W
046C:  MOVWF  5F
046D:  MOVF   5C,W
046E:  MOVWF  5E
046F:  CLRF   61
0470:  MOVLW  64
0471:  MOVWF  60
0472:  CALL   33E
0473:  MOVF   78,W
0474:  ADDWF  2A,F
0475:  MOVF   79,W
0476:  BTFSC  03.0
0477:  INCFSZ 79,W
0478:  ADDWF  2B,F
....................                            enter_amt += (total_no[3]-'0')*10; 
0479:  MOVLW  30
047A:  SUBWF  36,W
047B:  MOVWF  5C
047C:  MOVF   37,W
047D:  MOVWF  5D
047E:  MOVLW  00
047F:  BTFSS  03.0
0480:  MOVLW  01
0481:  SUBWF  5D,F
0482:  MOVF   5D,W
0483:  MOVWF  5F
0484:  MOVF   5C,W
0485:  MOVWF  5E
0486:  CLRF   61
0487:  MOVLW  0A
0488:  MOVWF  60
0489:  CALL   33E
048A:  MOVF   78,W
048B:  ADDWF  2A,F
048C:  MOVF   79,W
048D:  BTFSC  03.0
048E:  INCFSZ 79,W
048F:  ADDWF  2B,F
....................                            enter_amt += (total_no[4]-'0')*1; 
0490:  MOVLW  30
0491:  SUBWF  38,W
0492:  MOVWF  5C
0493:  MOVF   39,W
0494:  MOVWF  5D
0495:  MOVLW  00
0496:  BTFSS  03.0
0497:  MOVLW  01
0498:  SUBWF  5D,F
0499:  MOVF   5C,W
049A:  ADDWF  2A,F
049B:  MOVF   5D,W
049C:  BTFSC  03.0
049D:  INCFSZ 5D,W
049E:  ADDWF  2B,F
....................                        } 
....................                               if((amount_flag==1) && (total_amt>enter_amt)) 
049F:  BTFSS  59.0
04A0:  GOTO   4C8
04A1:  MOVF   2B,W
04A2:  SUBWF  2D,W
04A3:  BTFSS  03.0
04A4:  GOTO   4C8
04A5:  BTFSS  03.2
04A6:  GOTO   4AB
04A7:  MOVF   2C,W
04A8:  SUBWF  2A,W
04A9:  BTFSC  03.0
04AA:  GOTO   4C8
....................                               { 
....................                                  amount_flag=0; 
04AB:  BCF    59.0
....................  
....................                                  amount = (total_amt) - (enter_amt) ; 
04AC:  MOVF   2A,W
04AD:  SUBWF  2C,W
04AE:  MOVWF  2E
04AF:  MOVF   2D,W
04B0:  MOVWF  2F
04B1:  MOVF   2B,W
04B2:  BTFSS  03.0
04B3:  INCFSZ 2B,W
04B4:  SUBWF  2F,F
....................                                  command(0xd4); 
04B5:  MOVLW  D4
04B6:  MOVWF  5C
04B7:  CALL   324
....................                                  data("BALANCE AMOUNT:"); 
04B8:  CLRF   5C
04B9:  MOVF   5C,W
04BA:  CALL   260
04BB:  IORLW  00
04BC:  BTFSC  03.2
04BD:  GOTO   4C2
04BE:  INCF   5C,F
04BF:  MOVWF  61
04C0:  CALL   331
04C1:  GOTO   4B9
....................                                  display(amount); 
04C2:  MOVF   2F,W
04C3:  MOVWF  5D
04C4:  MOVF   2E,W
04C5:  MOVWF  5C
04C6:  CALL   39E
....................  
....................                               } 
....................                                     else if((amount_flag==1) && (total_amt<enter_amt)) 
04C7:  GOTO   4E2
04C8:  BTFSS  59.0
04C9:  GOTO   4E2
04CA:  MOVF   2D,W
04CB:  SUBWF  2B,W
04CC:  BTFSS  03.0
04CD:  GOTO   4E2
04CE:  BTFSS  03.2
04CF:  GOTO   4D4
04D0:  MOVF   2A,W
04D1:  SUBWF  2C,W
04D2:  BTFSC  03.0
04D3:  GOTO   4E2
....................                                     { 
....................                                        amount_flag=0; 
04D4:  BCF    59.0
....................                                        command(0xd4); 
04D5:  MOVLW  D4
04D6:  MOVWF  5C
04D7:  CALL   324
....................                                        data("INVALID AMOUNT"); 
04D8:  CLRF   5C
04D9:  MOVF   5C,W
04DA:  CALL   274
04DB:  IORLW  00
04DC:  BTFSC  03.2
04DD:  GOTO   4E2
04DE:  INCF   5C,F
04DF:  MOVWF  61
04E0:  CALL   331
04E1:  GOTO   4D9
....................                                     } 
.................... } 
04E2:  RETLW  00
.................... void deposite_amount() 
.................... { 
....................       int1 amount_flag=0; 
04E3:  BCF    59.0
....................       int16 count = 0; 
04E4:  CLRF   5A
04E5:  CLRF   5B
....................       count=0; 
04E6:  CLRF   5B
04E7:  CLRF   5A
....................       rb_flag=0; 
04E8:  BCF    55.3
....................                while(count<5) 
....................                { 
04E9:  MOVF   5B,F
04EA:  BTFSS  03.2
04EB:  GOTO   515
04EC:  MOVF   5A,W
04ED:  SUBLW  04
04EE:  BTFSS  03.0
04EF:  GOTO   515
....................                   if(rb_flag==1) 
04F0:  BTFSS  55.3
04F1:  GOTO   514
....................                   { 
....................                      rb_flag=0; 
04F2:  BCF    55.3
....................                      total_no[count]=x|0x30; 
04F3:  BCF    03.0
04F4:  RLF    5A,W
04F5:  MOVWF  79
04F6:  RLF    5B,W
04F7:  MOVWF  7A
04F8:  MOVF   79,W
04F9:  ADDLW  30
04FA:  MOVWF  04
04FB:  MOVF   50,W
04FC:  IORLW  30
04FD:  INCF   04,F
04FE:  CLRF   00
04FF:  DECF   04,F
0500:  MOVWF  00
....................                      data(total_no[count]); 
0501:  BCF    03.0
0502:  RLF    5A,W
0503:  MOVWF  79
0504:  RLF    5B,W
0505:  MOVWF  7A
0506:  MOVF   79,W
0507:  ADDLW  30
0508:  MOVWF  04
0509:  INCF   04,F
050A:  MOVF   00,W
050B:  MOVWF  5D
050C:  DECF   04,F
050D:  MOVF   00,W
050E:  MOVWF  5C
050F:  MOVWF  61
0510:  CALL   331
....................                      count++; 
0511:  INCF   5A,F
0512:  BTFSC  03.2
0513:  INCF   5B,F
....................                   } 
....................                } 
0514:  GOTO   4E9
....................                         if(count>=5) 
0515:  MOVF   5B,F
0516:  BTFSS  03.2
0517:  GOTO   51C
0518:  MOVF   5A,W
0519:  SUBLW  04
051A:  BTFSC  03.0
051B:  GOTO   58E
....................                         { 
....................                            count=0; 
051C:  CLRF   5B
051D:  CLRF   5A
....................                            amount_flag=1; 
051E:  BSF    59.0
....................                            enter_amt = 0; 
051F:  CLRF   2B
0520:  CLRF   2A
....................                            enter_amt += (total_no[0]-'0')*10000; 
0521:  MOVLW  30
0522:  SUBWF  30,W
0523:  MOVWF  5C
0524:  MOVF   31,W
0525:  MOVWF  5D
0526:  MOVLW  00
0527:  BTFSS  03.0
0528:  MOVLW  01
0529:  SUBWF  5D,F
052A:  MOVF   5D,W
052B:  MOVWF  5F
052C:  MOVF   5C,W
052D:  MOVWF  5E
052E:  MOVLW  27
052F:  MOVWF  61
0530:  MOVLW  10
0531:  MOVWF  60
0532:  CALL   33E
0533:  MOVF   78,W
0534:  ADDWF  2A,F
0535:  MOVF   79,W
0536:  BTFSC  03.0
0537:  INCFSZ 79,W
0538:  ADDWF  2B,F
....................                            enter_amt += (total_no[1]-'0')*1000; 
0539:  MOVLW  30
053A:  SUBWF  32,W
053B:  MOVWF  5C
053C:  MOVF   33,W
053D:  MOVWF  5D
053E:  MOVLW  00
053F:  BTFSS  03.0
0540:  MOVLW  01
0541:  SUBWF  5D,F
0542:  MOVF   5D,W
0543:  MOVWF  5F
0544:  MOVF   5C,W
0545:  MOVWF  5E
0546:  MOVLW  03
0547:  MOVWF  61
0548:  MOVLW  E8
0549:  MOVWF  60
054A:  CALL   33E
054B:  MOVF   78,W
054C:  ADDWF  2A,F
054D:  MOVF   79,W
054E:  BTFSC  03.0
054F:  INCFSZ 79,W
0550:  ADDWF  2B,F
....................                            enter_amt += (total_no[2]-'0')*100; 
0551:  MOVLW  30
0552:  SUBWF  34,W
0553:  MOVWF  5C
0554:  MOVF   35,W
0555:  MOVWF  5D
0556:  MOVLW  00
0557:  BTFSS  03.0
0558:  MOVLW  01
0559:  SUBWF  5D,F
055A:  MOVF   5D,W
055B:  MOVWF  5F
055C:  MOVF   5C,W
055D:  MOVWF  5E
055E:  CLRF   61
055F:  MOVLW  64
0560:  MOVWF  60
0561:  CALL   33E
0562:  MOVF   78,W
0563:  ADDWF  2A,F
0564:  MOVF   79,W
0565:  BTFSC  03.0
0566:  INCFSZ 79,W
0567:  ADDWF  2B,F
....................                            enter_amt += (total_no[3]-'0')*10; 
0568:  MOVLW  30
0569:  SUBWF  36,W
056A:  MOVWF  5C
056B:  MOVF   37,W
056C:  MOVWF  5D
056D:  MOVLW  00
056E:  BTFSS  03.0
056F:  MOVLW  01
0570:  SUBWF  5D,F
0571:  MOVF   5D,W
0572:  MOVWF  5F
0573:  MOVF   5C,W
0574:  MOVWF  5E
0575:  CLRF   61
0576:  MOVLW  0A
0577:  MOVWF  60
0578:  CALL   33E
0579:  MOVF   78,W
057A:  ADDWF  2A,F
057B:  MOVF   79,W
057C:  BTFSC  03.0
057D:  INCFSZ 79,W
057E:  ADDWF  2B,F
....................                            enter_amt += (total_no[4]-'0')*1; 
057F:  MOVLW  30
0580:  SUBWF  38,W
0581:  MOVWF  5C
0582:  MOVF   39,W
0583:  MOVWF  5D
0584:  MOVLW  00
0585:  BTFSS  03.0
0586:  MOVLW  01
0587:  SUBWF  5D,F
0588:  MOVF   5C,W
0589:  ADDWF  2A,F
058A:  MOVF   5D,W
058B:  BTFSC  03.0
058C:  INCFSZ 5D,W
058D:  ADDWF  2B,F
....................                         } 
....................                                  if((amount_flag==1) && (total_amt>enter_amt) || (total_amt<enter_amt)) 
058E:  BTFSS  59.0
058F:  GOTO   59A
0590:  MOVF   2B,W
0591:  SUBWF  2D,W
0592:  BTFSS  03.0
0593:  GOTO   59A
0594:  BTFSS  03.2
0595:  GOTO   5A4
0596:  MOVF   2C,W
0597:  SUBWF  2A,W
0598:  BTFSS  03.0
0599:  GOTO   5A4
059A:  MOVF   2D,W
059B:  SUBWF  2B,W
059C:  BTFSS  03.0
059D:  GOTO   5C0
059E:  BTFSS  03.2
059F:  GOTO   5A4
05A0:  MOVF   2A,W
05A1:  SUBWF  2C,W
05A2:  BTFSC  03.0
05A3:  GOTO   5C0
....................                                { 
....................                                  amount_flag=0; 
05A4:  BCF    59.0
....................  
....................                                  amount = (total_amt) + (enter_amt) ; 
05A5:  MOVF   2A,W
05A6:  ADDWF  2C,W
05A7:  MOVWF  2E
05A8:  MOVF   2D,W
05A9:  MOVWF  2F
05AA:  MOVF   2B,W
05AB:  BTFSC  03.0
05AC:  INCFSZ 2B,W
05AD:  ADDWF  2F,F
....................                                  command(0xd4); 
05AE:  MOVLW  D4
05AF:  MOVWF  5C
05B0:  CALL   324
....................                                  data("BALANCE AMOUNT:"); 
05B1:  CLRF   5C
05B2:  MOVF   5C,W
05B3:  CALL   260
05B4:  IORLW  00
05B5:  BTFSC  03.2
05B6:  GOTO   5BB
05B7:  INCF   5C,F
05B8:  MOVWF  61
05B9:  CALL   331
05BA:  GOTO   5B2
....................                                  display(amount); 
05BB:  MOVF   2F,W
05BC:  MOVWF  5D
05BD:  MOVF   2E,W
05BE:  MOVWF  5C
05BF:  CALL   39E
....................  
....................                                } 
....................  
.................... } 
05C0:  RETLW  00
....................  
.................... void display(unsigned int16 m) 
.................... { 
....................       int u ; 
....................  
....................       for(u=0;u<=4;u++) 
*
039E:  CLRF   5E
039F:  MOVF   5E,W
03A0:  SUBLW  04
03A1:  BTFSS  03.0
03A2:  GOTO   3C2
....................       { 
....................       w[u] = m%10; 
03A3:  BCF    03.0
03A4:  RLF    5E,W
03A5:  ADDLW  3A
03A6:  MOVWF  04
03A7:  MOVF   5D,W
03A8:  MOVWF  61
03A9:  MOVF   5C,W
03AA:  MOVWF  60
03AB:  CLRF   63
03AC:  MOVLW  0A
03AD:  MOVWF  62
03AE:  CALL   378
03AF:  MOVF   77,W
03B0:  MOVWF  00
03B1:  INCF   04,F
03B2:  MOVF   7A,W
03B3:  MOVWF  00
....................       m = m/10; 
03B4:  MOVF   5D,W
03B5:  MOVWF  61
03B6:  MOVF   5C,W
03B7:  MOVWF  60
03B8:  CLRF   63
03B9:  MOVLW  0A
03BA:  MOVWF  62
03BB:  CALL   378
03BC:  MOVF   79,W
03BD:  MOVWF  5D
03BE:  MOVF   78,W
03BF:  MOVWF  5C
....................       } 
03C0:  INCF   5E,F
03C1:  GOTO   39F
....................       data(w[4]|0x30); 
03C2:  MOVF   42,W
03C3:  IORLW  30
03C4:  MOVWF  5F
03C5:  MOVF   43,W
03C6:  MOVWF  60
03C7:  MOVF   5F,W
03C8:  MOVWF  61
03C9:  CALL   331
....................       data(w[3]|0x30); 
03CA:  MOVF   40,W
03CB:  IORLW  30
03CC:  MOVWF  5F
03CD:  MOVF   41,W
03CE:  MOVWF  60
03CF:  MOVF   5F,W
03D0:  MOVWF  61
03D1:  CALL   331
....................       data(w[2]|0x30); 
03D2:  MOVF   3E,W
03D3:  IORLW  30
03D4:  MOVWF  5F
03D5:  MOVF   3F,W
03D6:  MOVWF  60
03D7:  MOVF   5F,W
03D8:  MOVWF  61
03D9:  CALL   331
....................       data(w[1]|0x30); 
03DA:  MOVF   3C,W
03DB:  IORLW  30
03DC:  MOVWF  5F
03DD:  MOVF   3D,W
03DE:  MOVWF  60
03DF:  MOVF   5F,W
03E0:  MOVWF  61
03E1:  CALL   331
....................       data(w[0]|0x30); 
03E2:  MOVF   3A,W
03E3:  IORLW  30
03E4:  MOVWF  5F
03E5:  MOVF   3B,W
03E6:  MOVWF  60
03E7:  MOVF   5F,W
03E8:  MOVWF  61
03E9:  CALL   331
.................... } 
03EA:  RETLW  00

Configuration Fuses:
   Word  1: 3F32   HS NOWDT PUT NODEBUG NOPROTECT NOBROWNOUT NOLVP NOCPD NOWRT
