CCS PCM C Compiler, Version 3.249, 33340               26-Feb-14 12:04

               Filename: E:\Ganesh Potti\Ganesh Projects\Engineers Projects\PPG_RFID_ppg\Transmitter.lst

               ROM used: 1037 words (13%)
                         Largest free fragment is 2048
               RAM used: 35 (20%) at main() level
                         38 (22%) worst case
               Stack:    3 worst case (2 in main + 1 for interrupts)

*
0000:  MOVLW  00
0001:  MOVWF  0A
0002:  GOTO   1BE
0003:  NOP
0004:  MOVWF  7F
0005:  SWAPF  03,W
0006:  CLRF   03
0007:  MOVWF  21
0008:  MOVF   0A,W
0009:  MOVWF  20
000A:  CLRF   0A
000B:  MOVF   04,W
000C:  MOVWF  22
000D:  MOVF   77,W
000E:  MOVWF  23
000F:  MOVF   78,W
0010:  MOVWF  24
0011:  MOVF   79,W
0012:  MOVWF  25
0013:  MOVF   7A,W
0014:  MOVWF  26
0015:  MOVF   7B,W
0016:  MOVWF  27
0017:  BCF    03.7
0018:  BCF    03.5
0019:  MOVLW  8C
001A:  MOVWF  04
001B:  BTFSS  00.5
001C:  GOTO   01F
001D:  BTFSC  0C.5
001E:  GOTO   032
001F:  MOVF   22,W
0020:  MOVWF  04
0021:  MOVF   23,W
0022:  MOVWF  77
0023:  MOVF   24,W
0024:  MOVWF  78
0025:  MOVF   25,W
0026:  MOVWF  79
0027:  MOVF   26,W
0028:  MOVWF  7A
0029:  MOVF   27,W
002A:  MOVWF  7B
002B:  MOVF   20,W
002C:  MOVWF  0A
002D:  SWAPF  21,W
002E:  MOVWF  03
002F:  SWAPF  7F,F
0030:  SWAPF  7F,W
0031:  RETFIE
0032:  BCF    0A.3
0033:  BCF    0A.4
0034:  GOTO   173
.................... #include <16F877A.h> 
.................... //////// Standard Header file for the PIC16F877A device //////////////// 
.................... #device PIC16F877A 
.................... #list 
....................  
.................... #use delay(clock=11059200) 
*
0197:  MOVLW  3F
0198:  MOVWF  04
0199:  MOVF   00,W
019A:  BTFSC  03.2
019B:  GOTO   1A9
019C:  MOVLW  03
019D:  MOVWF  78
019E:  CLRF   77
019F:  DECFSZ 77,F
01A0:  GOTO   19F
01A1:  DECFSZ 78,F
01A2:  GOTO   19E
01A3:  MOVLW  95
01A4:  MOVWF  77
01A5:  DECFSZ 77,F
01A6:  GOTO   1A5
01A7:  DECFSZ 00,F
01A8:  GOTO   19C
01A9:  RETLW  00
.................... #use rs232(baud=9600, xmit=PIN_c6,rcv=PIN_c7) 
....................  
.................... #byte porta=0x05 
.................... #byte trisa=0x85 
....................  
.................... #byte portb=0x06 
.................... #byte trisb=0x86 
....................  
.................... #byte portc=0x07 
.................... #byte trisc=0x87 
....................  
.................... #byte portd=0x08 
.................... #byte trisd=0x88 
....................  
.................... #byte porte=0x09 
.................... #byte trise=0x89 
....................  
.................... #byte intcon=0x0b 
.................... #byte pie1=0x8c 
.................... #byte pir1=0x0c 
.................... #byte rcsta=0x18 
.................... #byte txsta=0x98 
.................... #byte spbrg=0x99 
....................  
.................... #bit reg=0x09.0 
.................... #bit rw=0x09.1 
.................... #bit en=0x09.2 
....................  
.................... #byte rcreg=0x1a 
.................... #byte txreg=0x19 
....................  
....................  
.................... char a[12],i=0,j=0; 
*
01D0:  BCF    03.5
01D1:  CLRF   34
01D2:  CLRF   35
.................... int r=0, s=0, flag=0,b=0,c=0; 
01D3:  CLRF   36
01D4:  CLRF   37
01D5:  CLRF   38
01D6:  CLRF   39
01D7:  CLRF   3A
.................... int1 glag=0,glag_1=0,receiver=0; 
01D8:  BCF    3B.0
01D9:  BCF    3B.1
01DA:  BCF    3B.2
....................  
.................... #int_RDA 
.................... RDA_isr() 
.................... { 
.................... if(receiver==0) 
*
0173:  BTFSC  3B.2
0174:  GOTO   183
.................... { 
.................... a[i]=fgetc(); 
0175:  MOVLW  28
0176:  ADDWF  34,W
0177:  MOVWF  04
0178:  BTFSS  0C.5
0179:  GOTO   178
017A:  MOVF   1A,W
017B:  MOVWF  00
.................... i++; 
017C:  INCF   34,F
.................... if(i==4) 
017D:  MOVF   34,W
017E:  SUBLW  04
017F:  BTFSS  03.2
0180:  GOTO   183
.................... { 
.................... i=0; 
0181:  CLRF   34
.................... glag=1; 
0182:  BSF    3B.0
.................... } 
.................... } 
.................... if(receiver==1) 
0183:  BTFSS  3B.2
0184:  GOTO   193
.................... { 
.................... a[i]=fgetc(); 
0185:  MOVLW  28
0186:  ADDWF  34,W
0187:  MOVWF  04
0188:  BTFSS  0C.5
0189:  GOTO   188
018A:  MOVF   1A,W
018B:  MOVWF  00
.................... i++; 
018C:  INCF   34,F
.................... if(i==12) 
018D:  MOVF   34,W
018E:  SUBLW  0C
018F:  BTFSS  03.2
0190:  GOTO   193
.................... { 
.................... i=0; 
0191:  CLRF   34
.................... glag_1=1; 
0192:  BSF    3B.1
.................... } 
.................... } 
.................... } 
0193:  BCF    0C.5
0194:  BCF    0A.3
0195:  BCF    0A.4
0196:  GOTO   01F
.................... void command(unsigned char com) 
.................... { 
.................... portd=com; 
*
01AA:  MOVF   3C,W
01AB:  MOVWF  08
.................... reg=0; 
01AC:  BCF    09.0
.................... rw=0; 
01AD:  BCF    09.1
.................... en=1; 
01AE:  BSF    09.2
.................... delay_ms(10); 
01AF:  MOVLW  0A
01B0:  MOVWF  3F
01B1:  CALL   197
.................... en=0; 
01B2:  BCF    09.2
.................... } 
01B3:  RETLW  00
....................  
.................... void data(unsigned char da) 
.................... { 
.................... portd=da; 
01B4:  MOVF   3E,W
01B5:  MOVWF  08
.................... reg=1; 
01B6:  BSF    09.0
.................... rw=0; 
01B7:  BCF    09.1
.................... en=1; 
01B8:  BSF    09.2
.................... delay_ms(10); 
01B9:  MOVLW  0A
01BA:  MOVWF  3F
01BB:  CALL   197
.................... en=0; 
01BC:  BCF    09.2
.................... } 
01BD:  RETLW  00
.................... void main() 
.................... { 
01BE:  CLRF   04
01BF:  MOVLW  1F
01C0:  ANDWF  03,F
01C1:  MOVLW  11
01C2:  BSF    03.5
01C3:  MOVWF  19
01C4:  MOVLW  22
01C5:  MOVWF  18
01C6:  MOVLW  90
01C7:  BCF    03.5
01C8:  MOVWF  18
01C9:  BSF    03.5
01CA:  BSF    1F.0
01CB:  BSF    1F.1
01CC:  BSF    1F.2
01CD:  BCF    1F.3
01CE:  MOVLW  07
01CF:  MOVWF  1C
....................    //portb=0x00; 
....................    //trisb=0x1e; 
....................    //porta=0x00; 
....................    //trisa=0x00; 
....................    portd=0x00; 
*
01DB:  CLRF   08
....................    trisd=0x00; 
01DC:  BSF    03.5
01DD:  CLRF   08
....................    trise=0x00; 
01DE:  CLRF   09
.................... 	portc=0x00; 
01DF:  BCF    03.5
01E0:  CLRF   07
.................... 	trisc=0x80; 
01E1:  MOVLW  80
01E2:  BSF    03.5
01E3:  MOVWF  07
....................  
.................... fputs("AT+CMGF=1"); 
01E4:  BCF    03.5
01E5:  CLRF   3C
01E6:  MOVF   3C,W
01E7:  CALL   035
01E8:  IORLW  00
01E9:  BTFSC  03.2
01EA:  GOTO   1F0
01EB:  INCF   3C,F
01EC:  BTFSS  0C.4
01ED:  GOTO   1EC
01EE:  MOVWF  19
01EF:  GOTO   1E6
01F0:  MOVLW  0D
01F1:  BTFSS  0C.4
01F2:  GOTO   1F1
01F3:  MOVWF  19
01F4:  MOVLW  0A
01F5:  BTFSS  0C.4
01F6:  GOTO   1F5
01F7:  MOVWF  19
.................... delay_ms(1000); 
01F8:  MOVLW  04
01F9:  MOVWF  3C
01FA:  MOVLW  FA
01FB:  MOVWF  3F
01FC:  CALL   197
01FD:  DECFSZ 3C,F
01FE:  GOTO   1FA
....................  
....................  
.................... fputs("AT+CNMI=1,2,0,0,0"); 
01FF:  CLRF   3C
0200:  MOVF   3C,W
0201:  CALL   043
0202:  IORLW  00
0203:  BTFSC  03.2
0204:  GOTO   20A
0205:  INCF   3C,F
0206:  BTFSS  0C.4
0207:  GOTO   206
0208:  MOVWF  19
0209:  GOTO   200
020A:  MOVLW  0D
020B:  BTFSS  0C.4
020C:  GOTO   20B
020D:  MOVWF  19
020E:  MOVLW  0A
020F:  BTFSS  0C.4
0210:  GOTO   20F
0211:  MOVWF  19
.................... delay_ms(1000); 
0212:  MOVLW  04
0213:  MOVWF  3C
0214:  MOVLW  FA
0215:  MOVWF  3F
0216:  CALL   197
0217:  DECFSZ 3C,F
0218:  GOTO   214
....................  
.................... fputs("AT+CMGR=1"); 
0219:  CLRF   3C
021A:  MOVF   3C,W
021B:  CALL   059
021C:  IORLW  00
021D:  BTFSC  03.2
021E:  GOTO   224
021F:  INCF   3C,F
0220:  BTFSS  0C.4
0221:  GOTO   220
0222:  MOVWF  19
0223:  GOTO   21A
0224:  MOVLW  0D
0225:  BTFSS  0C.4
0226:  GOTO   225
0227:  MOVWF  19
0228:  MOVLW  0A
0229:  BTFSS  0C.4
022A:  GOTO   229
022B:  MOVWF  19
.................... delay_ms(1000);  //intcon=0x00; 
022C:  MOVLW  04
022D:  MOVWF  3C
022E:  MOVLW  FA
022F:  MOVWF  3F
0230:  CALL   197
0231:  DECFSZ 3C,F
0232:  GOTO   22E
....................    //pie1=0x20; 
....................    //rcreg=0x00; 
....................    //setup_timer_2(T2_DIV_BY_1,255,1); 
.................... 	//setup_ccp1(CCP_PWM); 
....................  
....................    enable_interrupts(global); 
0233:  MOVLW  C0
0234:  IORWF  0B,F
....................    enable_interrupts(int_rda); 
0235:  BSF    03.5
0236:  BSF    0C.5
....................    fputc(a[i]); 
0237:  MOVLW  28
0238:  BCF    03.5
0239:  ADDWF  34,W
023A:  MOVWF  04
023B:  MOVF   00,W
023C:  MOVWF  3C
023D:  MOVF   3C,W
023E:  BTFSS  0C.4
023F:  GOTO   23E
0240:  MOVWF  19
....................    command(0x01); 
0241:  MOVLW  01
0242:  MOVWF  3C
0243:  CALL   1AA
....................    command(0x80); 
0244:  MOVLW  80
0245:  MOVWF  3C
0246:  CALL   1AA
....................  
....................    delay_ms(1); 
0247:  MOVLW  01
0248:  MOVWF  3F
0249:  CALL   197
....................    i=0; 
024A:  CLRF   34
....................    data("RFID TAG"); 
024B:  CLRF   3C
024C:  MOVF   3C,W
024D:  CALL   067
024E:  IORLW  00
024F:  BTFSC  03.2
0250:  GOTO   255
0251:  INCF   3C,F
0252:  MOVWF  3E
0253:  CALL   1B4
0254:  GOTO   24C
....................  
....................  
....................  
....................    while(1) 
....................    { 
....................  
....................    if(glag==1) 
0255:  BTFSS  3B.0
0256:  GOTO   40B
....................    { 
....................    command(0xc0); 
0257:  MOVLW  C0
0258:  MOVWF  3C
0259:  CALL   1AA
....................  
....................       for(i=0;i<12;i++) 
025A:  CLRF   34
025B:  MOVF   34,W
025C:  SUBLW  0B
025D:  BTFSS  03.0
025E:  GOTO   269
....................       { 
....................          data(a[i]|0x30); 
025F:  MOVLW  28
0260:  ADDWF  34,W
0261:  MOVWF  04
0262:  MOVF   00,W
0263:  IORLW  30
0264:  MOVWF  3D
0265:  MOVWF  3E
0266:  CALL   1B4
....................       } 
0267:  INCF   34,F
0268:  GOTO   25B
....................  
....................       delay_ms(200); 
0269:  MOVLW  C8
026A:  MOVWF  3F
026B:  CALL   197
....................  
....................       if(a[10]=='5' && a[11]=='D') 
026C:  MOVF   32,W
026D:  SUBLW  35
026E:  BTFSS  03.2
026F:  GOTO   33B
0270:  MOVF   33,W
0271:  SUBLW  44
0272:  BTFSS  03.2
0273:  GOTO   33B
....................       { 
....................       fputs("S1"); 
0274:  CLRF   3C
0275:  MOVF   3C,W
0276:  CALL   074
0277:  IORLW  00
0278:  BTFSC  03.2
0279:  GOTO   27F
027A:  INCF   3C,F
027B:  BTFSS  0C.4
027C:  GOTO   27B
027D:  MOVWF  19
027E:  GOTO   275
027F:  MOVLW  0D
0280:  BTFSS  0C.4
0281:  GOTO   280
0282:  MOVWF  19
0283:  MOVLW  0A
0284:  BTFSS  0C.4
0285:  GOTO   284
0286:  MOVWF  19
....................       command(0x80); 
0287:  MOVLW  80
0288:  MOVWF  3C
0289:  CALL   1AA
....................       data("   TAG FIRST   "); 
028A:  CLRF   3C
028B:  MOVF   3C,W
028C:  CALL   07B
028D:  IORLW  00
028E:  BTFSC  03.2
028F:  GOTO   294
0290:  INCF   3C,F
0291:  MOVWF  3E
0292:  CALL   1B4
0293:  GOTO   28B
....................       command(0xc0); 
0294:  MOVLW  C0
0295:  MOVWF  3C
0296:  CALL   1AA
....................       data(" PATIENT1 RAJA "); 
0297:  CLRF   3C
0298:  MOVF   3C,W
0299:  CALL   08F
029A:  IORLW  00
029B:  BTFSC  03.2
029C:  GOTO   2A1
029D:  INCF   3C,F
029E:  MOVWF  3E
029F:  CALL   1B4
02A0:  GOTO   298
....................       b=1; 
02A1:  MOVLW  01
02A2:  MOVWF  39
....................       delay_ms(250); 
02A3:  MOVLW  FA
02A4:  MOVWF  3F
02A5:  CALL   197
....................       if(b==1) 
02A6:  DECFSZ 39,W
02A7:  GOTO   33A
....................         { 
....................             command(0xc0); 
02A8:  MOVLW  C0
02A9:  MOVWF  3C
02AA:  CALL   1AA
....................             data("  PATIENT1 RAJA "); 
02AB:  CLRF   3C
02AC:  MOVF   3C,W
02AD:  CALL   0A3
02AE:  IORLW  00
02AF:  BTFSC  03.2
02B0:  GOTO   2B5
02B1:  INCF   3C,F
02B2:  MOVWF  3E
02B3:  CALL   1B4
02B4:  GOTO   2AC
....................             delay_ms(2000); 
02B5:  MOVLW  08
02B6:  MOVWF  3C
02B7:  MOVLW  FA
02B8:  MOVWF  3F
02B9:  CALL   197
02BA:  DECFSZ 3C,F
02BB:  GOTO   2B7
....................             command(0x80); 
02BC:  MOVLW  80
02BD:  MOVWF  3C
02BE:  CALL   1AA
....................             data("  PATIENT1 RAJA "); 
02BF:  CLRF   3C
02C0:  MOVF   3C,W
02C1:  CALL   0A3
02C2:  IORLW  00
02C3:  BTFSC  03.2
02C4:  GOTO   2C9
02C5:  INCF   3C,F
02C6:  MOVWF  3E
02C7:  CALL   1B4
02C8:  GOTO   2C0
....................             command(0xc0); 
02C9:  MOVLW  C0
02CA:  MOVWF  3C
02CB:  CALL   1AA
....................             data("DOCTOR THANGAM"); 
02CC:  CLRF   3C
02CD:  MOVF   3C,W
02CE:  CALL   0B8
02CF:  IORLW  00
02D0:  BTFSC  03.2
02D1:  GOTO   2D6
02D2:  INCF   3C,F
02D3:  MOVWF  3E
02D4:  CALL   1B4
02D5:  GOTO   2CD
....................             delay_ms(2000); 
02D6:  MOVLW  08
02D7:  MOVWF  3C
02D8:  MOVLW  FA
02D9:  MOVWF  3F
02DA:  CALL   197
02DB:  DECFSZ 3C,F
02DC:  GOTO   2D8
....................             command(0x80); 
02DD:  MOVLW  80
02DE:  MOVWF  3C
02DF:  CALL   1AA
....................             data("DOCTOR THANGAM"); 
02E0:  CLRF   3C
02E1:  MOVF   3C,W
02E2:  CALL   0B8
02E3:  IORLW  00
02E4:  BTFSC  03.2
02E5:  GOTO   2EA
02E6:  INCF   3C,F
02E7:  MOVWF  3E
02E8:  CALL   1B4
02E9:  GOTO   2E1
....................             command(0xc0); 
02EA:  MOVLW  C0
02EB:  MOVWF  3C
02EC:  CALL   1AA
....................             data(" DISEASE  COLD  "); 
02ED:  CLRF   3C
02EE:  MOVF   3C,W
02EF:  CALL   0CB
02F0:  IORLW  00
02F1:  BTFSC  03.2
02F2:  GOTO   2F7
02F3:  INCF   3C,F
02F4:  MOVWF  3E
02F5:  CALL   1B4
02F6:  GOTO   2EE
....................             delay_ms(2000); 
02F7:  MOVLW  08
02F8:  MOVWF  3C
02F9:  MOVLW  FA
02FA:  MOVWF  3F
02FB:  CALL   197
02FC:  DECFSZ 3C,F
02FD:  GOTO   2F9
....................             command(0x80); 
02FE:  MOVLW  80
02FF:  MOVWF  3C
0300:  CALL   1AA
....................             data(" DISEASE  COLD  "); 
0301:  CLRF   3C
0302:  MOVF   3C,W
0303:  CALL   0CB
0304:  IORLW  00
0305:  BTFSC  03.2
0306:  GOTO   30B
0307:  INCF   3C,F
0308:  MOVWF  3E
0309:  CALL   1B4
030A:  GOTO   302
....................             command(0xc0); 
030B:  MOVLW  C0
030C:  MOVWF  3C
030D:  CALL   1AA
....................             data(" PRESCRIPTION  "); 
030E:  CLRF   3C
030F:  MOVF   3C,W
0310:  CALL   0E0
0311:  IORLW  00
0312:  BTFSC  03.2
0313:  GOTO   318
0314:  INCF   3C,F
0315:  MOVWF  3E
0316:  CALL   1B4
0317:  GOTO   30F
....................             delay_ms(2000); 
0318:  MOVLW  08
0319:  MOVWF  3C
031A:  MOVLW  FA
031B:  MOVWF  3F
031C:  CALL   197
031D:  DECFSZ 3C,F
031E:  GOTO   31A
....................             command(0x80); 
031F:  MOVLW  80
0320:  MOVWF  3C
0321:  CALL   1AA
....................             data(" PRESCRIPTION  "); 
0322:  CLRF   3C
0323:  MOVF   3C,W
0324:  CALL   0E0
0325:  IORLW  00
0326:  BTFSC  03.2
0327:  GOTO   32C
0328:  INCF   3C,F
0329:  MOVWF  3E
032A:  CALL   1B4
032B:  GOTO   323
....................             command(0xc0); 
032C:  MOVLW  C0
032D:  MOVWF  3C
032E:  CALL   1AA
....................             data(" EXCEDRIN TAB "); 
032F:  CLRF   3C
0330:  MOVF   3C,W
0331:  CALL   0F4
0332:  IORLW  00
0333:  BTFSC  03.2
0334:  GOTO   339
0335:  INCF   3C,F
0336:  MOVWF  3E
0337:  CALL   1B4
0338:  GOTO   330
....................             b=0; 
0339:  CLRF   39
....................           } 
....................  
....................  
....................       } 
....................       else if(a[10]=='3' && a[11]=='E') 
033A:  GOTO   409
033B:  MOVF   32,W
033C:  SUBLW  33
033D:  BTFSS  03.2
033E:  GOTO   409
033F:  MOVF   33,W
0340:  SUBLW  45
0341:  BTFSS  03.2
0342:  GOTO   409
....................       { 
....................       fputs("S2"); 
0343:  CLRF   3C
0344:  MOVF   3C,W
0345:  CALL   10A
0346:  IORLW  00
0347:  BTFSC  03.2
0348:  GOTO   34E
0349:  INCF   3C,F
034A:  BTFSS  0C.4
034B:  GOTO   34A
034C:  MOVWF  19
034D:  GOTO   344
034E:  MOVLW  0D
034F:  BTFSS  0C.4
0350:  GOTO   34F
0351:  MOVWF  19
0352:  MOVLW  0A
0353:  BTFSS  0C.4
0354:  GOTO   353
0355:  MOVWF  19
....................       command(0x80); 
0356:  MOVLW  80
0357:  MOVWF  3C
0358:  CALL   1AA
....................       data("  TAG SECOND  "); 
0359:  CLRF   3C
035A:  MOVF   3C,W
035B:  CALL   111
035C:  IORLW  00
035D:  BTFSC  03.2
035E:  GOTO   363
035F:  INCF   3C,F
0360:  MOVWF  3E
0361:  CALL   1B4
0362:  GOTO   35A
....................       command(0xc0); 
0363:  MOVLW  C0
0364:  MOVWF  3C
0365:  CALL   1AA
....................       data("PATIENT2 YUVARAJ"); 
0366:  CLRF   3C
0367:  MOVF   3C,W
0368:  CALL   124
0369:  IORLW  00
036A:  BTFSC  03.2
036B:  GOTO   370
036C:  INCF   3C,F
036D:  MOVWF  3E
036E:  CALL   1B4
036F:  GOTO   367
....................       c=1; 
0370:  MOVLW  01
0371:  MOVWF  3A
....................       delay_ms(150); 
0372:  MOVLW  96
0373:  MOVWF  3F
0374:  CALL   197
....................       if(c==1) 
0375:  DECFSZ 3A,W
0376:  GOTO   37A
....................       command(0xc0); 
0377:  MOVLW  C0
0378:  MOVWF  3C
0379:  CALL   1AA
....................             data("PATIENT2 YUVARAJ"); 
037A:  CLRF   3C
037B:  MOVF   3C,W
037C:  CALL   124
037D:  IORLW  00
037E:  BTFSC  03.2
037F:  GOTO   384
0380:  INCF   3C,F
0381:  MOVWF  3E
0382:  CALL   1B4
0383:  GOTO   37B
....................             delay_ms(2000); 
0384:  MOVLW  08
0385:  MOVWF  3C
0386:  MOVLW  FA
0387:  MOVWF  3F
0388:  CALL   197
0389:  DECFSZ 3C,F
038A:  GOTO   386
....................             command(0x80); 
038B:  MOVLW  80
038C:  MOVWF  3C
038D:  CALL   1AA
....................             data("PATIENT2 YUVARAJ"); 
038E:  CLRF   3C
038F:  MOVF   3C,W
0390:  CALL   124
0391:  IORLW  00
0392:  BTFSC  03.2
0393:  GOTO   398
0394:  INCF   3C,F
0395:  MOVWF  3E
0396:  CALL   1B4
0397:  GOTO   38F
....................             command(0xc0); 
0398:  MOVLW  C0
0399:  MOVWF  3C
039A:  CALL   1AA
....................             data("DOCTOR THANGAM"); 
039B:  CLRF   3C
039C:  MOVF   3C,W
039D:  CALL   0B8
039E:  IORLW  00
039F:  BTFSC  03.2
03A0:  GOTO   3A5
03A1:  INCF   3C,F
03A2:  MOVWF  3E
03A3:  CALL   1B4
03A4:  GOTO   39C
....................             delay_ms(2000); 
03A5:  MOVLW  08
03A6:  MOVWF  3C
03A7:  MOVLW  FA
03A8:  MOVWF  3F
03A9:  CALL   197
03AA:  DECFSZ 3C,F
03AB:  GOTO   3A7
....................             command(0x80); 
03AC:  MOVLW  80
03AD:  MOVWF  3C
03AE:  CALL   1AA
....................             data("DOCTOR THANGAM"); 
03AF:  CLRF   3C
03B0:  MOVF   3C,W
03B1:  CALL   0B8
03B2:  IORLW  00
03B3:  BTFSC  03.2
03B4:  GOTO   3B9
03B5:  INCF   3C,F
03B6:  MOVWF  3E
03B7:  CALL   1B4
03B8:  GOTO   3B0
....................             command(0xc0); 
03B9:  MOVLW  C0
03BA:  MOVWF  3C
03BB:  CALL   1AA
....................             data(" DISEASE FEVER "); 
03BC:  CLRF   3C
03BD:  MOVF   3C,W
03BE:  CALL   139
03BF:  IORLW  00
03C0:  BTFSC  03.2
03C1:  GOTO   3C6
03C2:  INCF   3C,F
03C3:  MOVWF  3E
03C4:  CALL   1B4
03C5:  GOTO   3BD
....................             delay_ms(2000); 
03C6:  MOVLW  08
03C7:  MOVWF  3C
03C8:  MOVLW  FA
03C9:  MOVWF  3F
03CA:  CALL   197
03CB:  DECFSZ 3C,F
03CC:  GOTO   3C8
....................             command(0x80); 
03CD:  MOVLW  80
03CE:  MOVWF  3C
03CF:  CALL   1AA
....................             data(" DISEASE FEVER"); 
03D0:  CLRF   3C
03D1:  MOVF   3C,W
03D2:  CALL   14D
03D3:  IORLW  00
03D4:  BTFSC  03.2
03D5:  GOTO   3DA
03D6:  INCF   3C,F
03D7:  MOVWF  3E
03D8:  CALL   1B4
03D9:  GOTO   3D1
....................             command(0xc0); 
03DA:  MOVLW  C0
03DB:  MOVWF  3C
03DC:  CALL   1AA
....................             data(" PRESCRIPTION  "); 
03DD:  CLRF   3C
03DE:  MOVF   3C,W
03DF:  CALL   0E0
03E0:  IORLW  00
03E1:  BTFSC  03.2
03E2:  GOTO   3E7
03E3:  INCF   3C,F
03E4:  MOVWF  3E
03E5:  CALL   1B4
03E6:  GOTO   3DE
....................             delay_ms(2000); 
03E7:  MOVLW  08
03E8:  MOVWF  3C
03E9:  MOVLW  FA
03EA:  MOVWF  3F
03EB:  CALL   197
03EC:  DECFSZ 3C,F
03ED:  GOTO   3E9
....................             command(0x80); 
03EE:  MOVLW  80
03EF:  MOVWF  3C
03F0:  CALL   1AA
....................             data(" PRESCRIPTION  "); 
03F1:  CLRF   3C
03F2:  MOVF   3C,W
03F3:  CALL   0E0
03F4:  IORLW  00
03F5:  BTFSC  03.2
03F6:  GOTO   3FB
03F7:  INCF   3C,F
03F8:  MOVWF  3E
03F9:  CALL   1B4
03FA:  GOTO   3F2
....................             command(0xc0); 
03FB:  MOVLW  C0
03FC:  MOVWF  3C
03FD:  CALL   1AA
....................             data("PREVACID SOLUT"); 
03FE:  CLRF   3C
03FF:  MOVF   3C,W
0400:  CALL   160
0401:  IORLW  00
0402:  BTFSC  03.2
0403:  GOTO   408
0404:  INCF   3C,F
0405:  MOVWF  3E
0406:  CALL   1B4
0407:  GOTO   3FF
....................             c=0; 
0408:  CLRF   3A
....................       } 
....................  
....................       glag=0;i=0; 
0409:  BCF    3B.0
040A:  CLRF   34
....................    } 
....................  
....................  } 
040B:  GOTO   255
.................... } 
040C:  SLEEP
